(dp0
S'length'
p1
(dp2
cnumpy.core.multiarray
scalar
p3
(cnumpy
dtype
p4
(S'f8'
p5
I0
I1
tp6
Rp7
(I3
S'<'
p8
NNNI-1
I-1
I0
tp9
bS'\x00\x00\x00\x00\x00\x00\x00\x00'
p10
tp11
Rp12
ccollections
defaultdict
p13
(c__builtin__
list
p14
tp15
Rp16
I1
(lp17
I1
asI2
(lp18
I1
asI3
(lp19
I1
asI4
(lp20
I1
asI5
(lp21
I1
asI6
(lp22
I1
asI7
(lp23
I1
asI8
(lp24
I1
asI9
(lp25
I1
asI10
(lp26
I1
asI11
(lp27
I1
asI12
(lp28
I1
asI13
(lp29
I1
asI14
(lp30
I1
asI15
(lp31
I1
asI16
(lp32
I1
asI17
(lp33
I1
asI18
(lp34
I1
asI19
(lp35
I1
asI20
(lp36
I1
asI21
(lp37
I1
asI22
(lp38
I1
asI23
(lp39
I1
asI24
(lp40
I1
asI25
(lp41
I1
asI26
(lp42
I1
asI27
(lp43
I1
asI28
(lp44
I1
asI29
(lp45
I1
asI30
(lp46
I1
asI31
(lp47
I1
asI32
(lp48
I1
asI33
(lp49
I1
asI34
(lp50
I1
asI35
(lp51
I1
asI36
(lp52
I1
asI37
(lp53
I1
asI38
(lp54
I1
asI39
(lp55
I1
asI40
(lp56
I1
asI41
(lp57
I1
asI42
(lp58
I1
asI43
(lp59
I1
asI44
(lp60
I1
asI45
(lp61
I1
asI46
(lp62
I1
asI47
(lp63
I1
asI48
(lp64
I1
asI49
(lp65
I1
asI50
(lp66
I1
asI51
(lp67
I1
asI52
(lp68
I1
asI53
(lp69
I1
asI54
(lp70
I1
asI55
(lp71
I1
asI56
(lp72
I1
asI57
(lp73
I1
asI58
(lp74
I1
asI59
(lp75
I1
asI60
(lp76
I1
asI61
(lp77
I1
asI62
(lp78
I1
asI63
(lp79
I1
asI64
(lp80
I1
asI65
(lp81
I1
asI66
(lp82
I1
asI67
(lp83
I1
asI68
(lp84
I1
asI69
(lp85
I1
asI70
(lp86
I1
asI71
(lp87
I1
asI72
(lp88
I1
asI73
(lp89
I1
asI74
(lp90
I1
asI75
(lp91
I1
asI76
(lp92
I1
asI77
(lp93
I1
asI78
(lp94
I1
asI79
(lp95
I1
asI80
(lp96
I1
asI81
(lp97
I1
asI82
(lp98
I1
asI83
(lp99
I1
asI84
(lp100
I1
asI85
(lp101
I1
asI86
(lp102
I1
asI87
(lp103
I1
asI88
(lp104
I1
asI89
(lp105
I1
asI90
(lp106
I1
asI91
(lp107
I1
asI92
(lp108
I1
asI93
(lp109
I1
asI94
(lp110
I1
asI95
(lp111
I1
asI96
(lp112
I1
asI97
(lp113
I1
asI98
(lp114
I1
asI99
(lp115
I1
asI100
(lp116
I1
asI101
(lp117
I1
asI102
(lp118
I1
asI103
(lp119
I1
asI104
(lp120
I1
asI105
(lp121
I1
asI106
(lp122
I1
asI107
(lp123
I1
asI108
(lp124
I1
asI109
(lp125
I1
asI110
(lp126
I1
asI111
(lp127
I1
asI112
(lp128
I1
asI113
(lp129
I1
assg3
(g7
S'\x00\x00\x00\x00\x00\x00\xe0?'
p130
tp131
Rp132
g13
(g14
tp133
Rp134
I1
(lp135
I3
asI2
(lp136
I3
asI3
(lp137
I3
asI4
(lp138
I3
asI5
(lp139
I3
asI6
(lp140
I3
asI7
(lp141
I3
asI8
(lp142
I3
asI9
(lp143
I3
asI10
(lp144
I3
asI11
(lp145
I3
asI12
(lp146
I3
asI13
(lp147
I3
asI14
(lp148
I3
asI15
(lp149
I3
asI16
(lp150
I3
asI17
(lp151
I3
asI18
(lp152
I3
asI19
(lp153
I3
asI20
(lp154
I3
asI21
(lp155
I3
asI22
(lp156
I4
asI23
(lp157
I3
asI24
(lp158
I4
asI25
(lp159
I3
asI26
(lp160
I4
asI27
(lp161
I3
asI28
(lp162
I3
asI29
(lp163
I3
asI30
(lp164
I3
asI31
(lp165
I3
asI32
(lp166
I4
asI33
(lp167
I4
asI34
(lp168
I4
asI35
(lp169
I4
asI36
(lp170
I4
asI37
(lp171
I4
asI38
(lp172
I4
asI39
(lp173
I4
asI40
(lp174
I3
asI41
(lp175
I4
asI42
(lp176
I4
asI43
(lp177
I4
asI44
(lp178
I4
asI45
(lp179
I4
asI46
(lp180
I4
asI47
(lp181
I4
asI48
(lp182
I5
asI49
(lp183
I4
asI50
(lp184
I4
asI51
(lp185
I4
asI52
(lp186
I4
asI53
(lp187
I4
asI54
(lp188
I4
asI55
(lp189
I4
asI56
(lp190
I4
asI57
(lp191
I4
asI58
(lp192
I4
asI59
(lp193
I4
asI60
(lp194
I4
asI61
(lp195
I4
asI62
(lp196
I4
asI63
(lp197
I4
asI64
(lp198
I4
asI65
(lp199
I5
asI66
(lp200
I4
asI67
(lp201
I4
asI68
(lp202
I4
asI69
(lp203
I5
asI70
(lp204
I4
asI71
(lp205
I5
asI72
(lp206
I5
asI73
(lp207
I4
asI74
(lp208
I4
asI75
(lp209
I5
asI76
(lp210
I6
asI77
(lp211
I4
asI78
(lp212
I5
asI79
(lp213
I5
asI80
(lp214
I5
asI81
(lp215
I5
asI82
(lp216
I4
asI83
(lp217
I5
asI84
(lp218
I5
asI85
(lp219
I2
asI86
(lp220
I4
asI87
(lp221
I1
asI88
(lp222
I5
asI89
(lp223
I1
asI90
(lp224
I1
asI91
(lp225
I1
asI92
(lp226
I1
asI93
(lp227
I4
asI94
(lp228
I5
asI95
(lp229
I1
asI96
(lp230
I1
asI97
(lp231
I4
asI98
(lp232
I2
asI99
(lp233
I5
asI100
(lp234
I1
asI101
(lp235
I1
asI102
(lp236
I1
asI103
(lp237
I1
asI104
(lp238
I1
asI105
(lp239
I1
asI106
(lp240
I4
asI107
(lp241
I1
asI108
(lp242
I1
asI109
(lp243
I1
asI110
(lp244
I1
asI111
(lp245
I1
asI112
(lp246
I1
asI113
(lp247
I1
assg3
(g7
S'\x9a\x99\x99\x99\x99\x99\xc9?'
p248
tp249
Rp250
g13
(g14
tp251
Rp252
I1
(lp253
I4
asI2
(lp254
I4
asI3
(lp255
I4
asI4
(lp256
I4
asI5
(lp257
I4
asI6
(lp258
I4
asI7
(lp259
I4
asI8
(lp260
I4
asI9
(lp261
I4
asI10
(lp262
I4
asI11
(lp263
I4
asI12
(lp264
I3
asI13
(lp265
I3
asI14
(lp266
I4
asI15
(lp267
I4
asI16
(lp268
I4
asI17
(lp269
I4
asI18
(lp270
I4
asI19
(lp271
I4
asI20
(lp272
I4
asI21
(lp273
I4
asI22
(lp274
I4
asI23
(lp275
I4
asI24
(lp276
I4
asI25
(lp277
I4
asI26
(lp278
I4
asI27
(lp279
I4
asI28
(lp280
I4
asI29
(lp281
I4
asI30
(lp282
I4
asI31
(lp283
I4
asI32
(lp284
I4
asI33
(lp285
I4
asI34
(lp286
I6
asI35
(lp287
I5
asI36
(lp288
I4
asI37
(lp289
I5
asI38
(lp290
I7
asI39
(lp291
I5
asI40
(lp292
I5
asI41
(lp293
I5
asI42
(lp294
I6
asI43
(lp295
I5
asI44
(lp296
I5
asI45
(lp297
I5
asI46
(lp298
I5
asI47
(lp299
I5
asI48
(lp300
I6
asI49
(lp301
I5
asI50
(lp302
I6
asI51
(lp303
I5
asI52
(lp304
I6
asI53
(lp305
I5
asI54
(lp306
I5
asI55
(lp307
I6
asI56
(lp308
I6
asI57
(lp309
I5
asI58
(lp310
I4
asI59
(lp311
I6
asI60
(lp312
I5
asI61
(lp313
I6
asI62
(lp314
I5
asI63
(lp315
I5
asI64
(lp316
I5
asI65
(lp317
I7
asI66
(lp318
I6
asI67
(lp319
I4
asI68
(lp320
I1
asI69
(lp321
I6
asI70
(lp322
I5
asI71
(lp323
I5
asI72
(lp324
I6
asI73
(lp325
I5
asI74
(lp326
I6
asI75
(lp327
I6
asI76
(lp328
I2
asI77
(lp329
I6
asI78
(lp330
I7
asI79
(lp331
I1
asI80
(lp332
I5
asI81
(lp333
I1
asI82
(lp334
I5
asI83
(lp335
I3
asI84
(lp336
I6
asI85
(lp337
I2
asI86
(lp338
I2
asI87
(lp339
I1
asI88
(lp340
I2
asI89
(lp341
I1
asI90
(lp342
I1
asI91
(lp343
I1
asI92
(lp344
I1
asI93
(lp345
I1
asI94
(lp346
I5
asI95
(lp347
I1
asI96
(lp348
I1
asI97
(lp349
I1
asI98
(lp350
I2
asI99
(lp351
I1
asI100
(lp352
I1
asI101
(lp353
I1
asI102
(lp354
I1
asI103
(lp355
I1
asI104
(lp356
I1
asI105
(lp357
I1
asI106
(lp358
I1
asI107
(lp359
I1
asI108
(lp360
I1
asI109
(lp361
I2
asI110
(lp362
I1
asI111
(lp363
I1
asI112
(lp364
I1
asI113
(lp365
I1
assg3
(g7
S'\x9a\x99\x99\x99\x99\x99\xd9?'
p366
tp367
Rp368
g13
(g14
tp369
Rp370
I1
(lp371
I3
asI2
(lp372
I3
asI3
(lp373
I4
asI4
(lp374
I3
asI5
(lp375
I3
asI6
(lp376
I3
asI7
(lp377
I3
asI8
(lp378
I3
asI9
(lp379
I3
asI10
(lp380
I3
asI11
(lp381
I3
asI12
(lp382
I3
asI13
(lp383
I3
asI14
(lp384
I3
asI15
(lp385
I3
asI16
(lp386
I3
asI17
(lp387
I3
asI18
(lp388
I3
asI19
(lp389
I4
asI20
(lp390
I3
asI21
(lp391
I4
asI22
(lp392
I4
asI23
(lp393
I3
asI24
(lp394
I4
asI25
(lp395
I4
asI26
(lp396
I3
asI27
(lp397
I4
asI28
(lp398
I4
asI29
(lp399
I4
asI30
(lp400
I4
asI31
(lp401
I4
asI32
(lp402
I4
asI33
(lp403
I4
asI34
(lp404
I4
asI35
(lp405
I4
asI36
(lp406
I4
asI37
(lp407
I4
asI38
(lp408
I4
asI39
(lp409
I4
asI40
(lp410
I4
asI41
(lp411
I4
asI42
(lp412
I4
asI43
(lp413
I4
asI44
(lp414
I4
asI45
(lp415
I4
asI46
(lp416
I4
asI47
(lp417
I4
asI48
(lp418
I5
asI49
(lp419
I4
asI50
(lp420
I5
asI51
(lp421
I4
asI52
(lp422
I3
asI53
(lp423
I4
asI54
(lp424
I4
asI55
(lp425
I4
asI56
(lp426
I5
asI57
(lp427
I4
asI58
(lp428
I5
asI59
(lp429
I4
asI60
(lp430
I4
asI61
(lp431
I4
asI62
(lp432
I4
asI63
(lp433
I5
asI64
(lp434
I4
asI65
(lp435
I4
asI66
(lp436
I4
asI67
(lp437
I4
asI68
(lp438
I4
asI69
(lp439
I5
asI70
(lp440
I5
asI71
(lp441
I5
asI72
(lp442
I6
asI73
(lp443
I4
asI74
(lp444
I5
asI75
(lp445
I5
asI76
(lp446
I2
asI77
(lp447
I4
asI78
(lp448
I5
asI79
(lp449
I1
asI80
(lp450
I4
asI81
(lp451
I1
asI82
(lp452
I5
asI83
(lp453
I5
asI84
(lp454
I5
asI85
(lp455
I5
asI86
(lp456
I5
asI87
(lp457
I2
asI88
(lp458
I2
asI89
(lp459
I1
asI90
(lp460
I1
asI91
(lp461
I1
asI92
(lp462
I1
asI93
(lp463
I5
asI94
(lp464
I5
asI95
(lp465
I1
asI96
(lp466
I1
asI97
(lp467
I4
asI98
(lp468
I2
asI99
(lp469
I5
asI100
(lp470
I1
asI101
(lp471
I1
asI102
(lp472
I1
asI103
(lp473
I1
asI104
(lp474
I1
asI105
(lp475
I1
asI106
(lp476
I1
asI107
(lp477
I1
asI108
(lp478
I1
asI109
(lp479
I2
asI110
(lp480
I1
asI111
(lp481
I1
asI112
(lp482
I1
asI113
(lp483
I1
assg3
(g7
S'\x00\x00\x00\x00\x00\x00\xf0?'
p484
tp485
Rp486
g13
(g14
tp487
Rp488
I1
(lp489
I3
asI2
(lp490
I3
asI3
(lp491
I3
asI4
(lp492
I3
asI5
(lp493
I3
asI6
(lp494
I3
asI7
(lp495
I3
asI8
(lp496
I3
asI9
(lp497
I3
asI10
(lp498
I3
asI11
(lp499
I3
asI12
(lp500
I3
asI13
(lp501
I3
asI14
(lp502
I3
asI15
(lp503
I3
asI16
(lp504
I3
asI17
(lp505
I3
asI18
(lp506
I3
asI19
(lp507
I3
asI20
(lp508
I3
asI21
(lp509
I3
asI22
(lp510
I3
asI23
(lp511
I3
asI24
(lp512
I3
asI25
(lp513
I3
asI26
(lp514
I3
asI27
(lp515
I3
asI28
(lp516
I3
asI29
(lp517
I3
asI30
(lp518
I3
asI31
(lp519
I3
asI32
(lp520
I3
asI33
(lp521
I3
asI34
(lp522
I4
asI35
(lp523
I3
asI36
(lp524
I3
asI37
(lp525
I4
asI38
(lp526
I4
asI39
(lp527
I3
asI40
(lp528
I3
asI41
(lp529
I4
asI42
(lp530
I3
asI43
(lp531
I3
asI44
(lp532
I4
asI45
(lp533
I3
asI46
(lp534
I3
asI47
(lp535
I4
asI48
(lp536
I4
asI49
(lp537
I3
asI50
(lp538
I4
asI51
(lp539
I4
asI52
(lp540
I4
asI53
(lp541
I3
asI54
(lp542
I4
asI55
(lp543
I4
asI56
(lp544
I4
asI57
(lp545
I4
asI58
(lp546
I4
asI59
(lp547
I4
asI60
(lp548
I4
asI61
(lp549
I3
asI62
(lp550
I4
asI63
(lp551
I4
asI64
(lp552
I3
asI65
(lp553
I4
asI66
(lp554
I4
asI67
(lp555
I3
asI68
(lp556
I4
asI69
(lp557
I4
asI70
(lp558
I4
asI71
(lp559
I4
asI72
(lp560
I4
asI73
(lp561
I4
asI74
(lp562
I4
asI75
(lp563
I4
asI76
(lp564
I6
asI77
(lp565
I4
asI78
(lp566
I4
asI79
(lp567
I4
asI80
(lp568
I4
asI81
(lp569
I4
asI82
(lp570
I4
asI83
(lp571
I4
asI84
(lp572
I5
asI85
(lp573
I4
asI86
(lp574
I4
asI87
(lp575
I5
asI88
(lp576
I5
asI89
(lp577
I6
asI90
(lp578
I1
asI91
(lp579
I1
asI92
(lp580
I2
asI93
(lp581
I4
asI94
(lp582
I4
asI95
(lp583
I1
asI96
(lp584
I1
asI97
(lp585
I4
asI98
(lp586
I2
asI99
(lp587
I5
asI100
(lp588
I1
asI101
(lp589
I1
asI102
(lp590
I1
asI103
(lp591
I1
asI104
(lp592
I1
asI105
(lp593
I1
asI106
(lp594
I4
asI107
(lp595
I1
asI108
(lp596
I1
asI109
(lp597
I2
asI110
(lp598
I1
asI111
(lp599
I1
asI112
(lp600
I1
asI113
(lp601
I1
assg3
(g7
S'\x9a\x99\x99\x99\x99\x99\xe9?'
p602
tp603
Rp604
g13
(g14
tp605
Rp606
I1
(lp607
I3
asI2
(lp608
I3
asI3
(lp609
I3
asI4
(lp610
I3
asI5
(lp611
I3
asI6
(lp612
I3
asI7
(lp613
I3
asI8
(lp614
I3
asI9
(lp615
I3
asI10
(lp616
I3
asI11
(lp617
I3
asI12
(lp618
I3
asI13
(lp619
I3
asI14
(lp620
I3
asI15
(lp621
I3
asI16
(lp622
I3
asI17
(lp623
I3
asI18
(lp624
I3
asI19
(lp625
I3
asI20
(lp626
I3
asI21
(lp627
I3
asI22
(lp628
I3
asI23
(lp629
I3
asI24
(lp630
I3
asI25
(lp631
I3
asI26
(lp632
I3
asI27
(lp633
I3
asI28
(lp634
I3
asI29
(lp635
I3
asI30
(lp636
I3
asI31
(lp637
I3
asI32
(lp638
I3
asI33
(lp639
I3
asI34
(lp640
I4
asI35
(lp641
I4
asI36
(lp642
I3
asI37
(lp643
I4
asI38
(lp644
I4
asI39
(lp645
I3
asI40
(lp646
I3
asI41
(lp647
I4
asI42
(lp648
I4
asI43
(lp649
I4
asI44
(lp650
I4
asI45
(lp651
I3
asI46
(lp652
I4
asI47
(lp653
I4
asI48
(lp654
I4
asI49
(lp655
I4
asI50
(lp656
I4
asI51
(lp657
I4
asI52
(lp658
I4
asI53
(lp659
I4
asI54
(lp660
I4
asI55
(lp661
I4
asI56
(lp662
I4
asI57
(lp663
I4
asI58
(lp664
I4
asI59
(lp665
I4
asI60
(lp666
I4
asI61
(lp667
I3
asI62
(lp668
I4
asI63
(lp669
I4
asI64
(lp670
I3
asI65
(lp671
I4
asI66
(lp672
I4
asI67
(lp673
I4
asI68
(lp674
I4
asI69
(lp675
I4
asI70
(lp676
I4
asI71
(lp677
I4
asI72
(lp678
I4
asI73
(lp679
I4
asI74
(lp680
I4
asI75
(lp681
I4
asI76
(lp682
I6
asI77
(lp683
I4
asI78
(lp684
I4
asI79
(lp685
I5
asI80
(lp686
I4
asI81
(lp687
I5
asI82
(lp688
I4
asI83
(lp689
I4
asI84
(lp690
I5
asI85
(lp691
I4
asI86
(lp692
I4
asI87
(lp693
I5
asI88
(lp694
I5
asI89
(lp695
I1
asI90
(lp696
I1
asI91
(lp697
I1
asI92
(lp698
I2
asI93
(lp699
I4
asI94
(lp700
I5
asI95
(lp701
I1
asI96
(lp702
I1
asI97
(lp703
I4
asI98
(lp704
I2
asI99
(lp705
I1
asI100
(lp706
I1
asI101
(lp707
I1
asI102
(lp708
I1
asI103
(lp709
I1
asI104
(lp710
I1
asI105
(lp711
I1
asI106
(lp712
I4
asI107
(lp713
I1
asI108
(lp714
I1
asI109
(lp715
I2
asI110
(lp716
I1
asI111
(lp717
I1
asI112
(lp718
I1
asI113
(lp719
I1
assg3
(g7
S'433333\xe3?'
p720
tp721
Rp722
g13
(g14
tp723
Rp724
I1
(lp725
I3
asI2
(lp726
I3
asI3
(lp727
I3
asI4
(lp728
I3
asI5
(lp729
I3
asI6
(lp730
I3
asI7
(lp731
I3
asI8
(lp732
I3
asI9
(lp733
I3
asI10
(lp734
I3
asI11
(lp735
I3
asI12
(lp736
I3
asI13
(lp737
I3
asI14
(lp738
I3
asI15
(lp739
I3
asI16
(lp740
I3
asI17
(lp741
I3
asI18
(lp742
I3
asI19
(lp743
I3
asI20
(lp744
I3
asI21
(lp745
I3
asI22
(lp746
I3
asI23
(lp747
I3
asI24
(lp748
I4
asI25
(lp749
I3
asI26
(lp750
I3
asI27
(lp751
I4
asI28
(lp752
I3
asI29
(lp753
I3
asI30
(lp754
I3
asI31
(lp755
I3
asI32
(lp756
I3
asI33
(lp757
I4
asI34
(lp758
I4
asI35
(lp759
I4
asI36
(lp760
I3
asI37
(lp761
I4
asI38
(lp762
I4
asI39
(lp763
I3
asI40
(lp764
I4
asI41
(lp765
I4
asI42
(lp766
I4
asI43
(lp767
I4
asI44
(lp768
I4
asI45
(lp769
I4
asI46
(lp770
I4
asI47
(lp771
I4
asI48
(lp772
I5
asI49
(lp773
I4
asI50
(lp774
I4
asI51
(lp775
I4
asI52
(lp776
I4
asI53
(lp777
I4
asI54
(lp778
I4
asI55
(lp779
I4
asI56
(lp780
I4
asI57
(lp781
I4
asI58
(lp782
I4
asI59
(lp783
I4
asI60
(lp784
I4
asI61
(lp785
I4
asI62
(lp786
I4
asI63
(lp787
I4
asI64
(lp788
I4
asI65
(lp789
I4
asI66
(lp790
I4
asI67
(lp791
I4
asI68
(lp792
I4
asI69
(lp793
I4
asI70
(lp794
I4
asI71
(lp795
I4
asI72
(lp796
I4
asI73
(lp797
I4
asI74
(lp798
I4
asI75
(lp799
I4
asI76
(lp800
I2
asI77
(lp801
I4
asI78
(lp802
I5
asI79
(lp803
I5
asI80
(lp804
I4
asI81
(lp805
I5
asI82
(lp806
I4
asI83
(lp807
I5
asI84
(lp808
I5
asI85
(lp809
I4
asI86
(lp810
I4
asI87
(lp811
I5
asI88
(lp812
I5
asI89
(lp813
I6
asI90
(lp814
I1
asI91
(lp815
I1
asI92
(lp816
I1
asI93
(lp817
I4
asI94
(lp818
I1
asI95
(lp819
I1
asI96
(lp820
I1
asI97
(lp821
I4
asI98
(lp822
I2
asI99
(lp823
I5
asI100
(lp824
I1
asI101
(lp825
I1
asI102
(lp826
I1
asI103
(lp827
I1
asI104
(lp828
I1
asI105
(lp829
I1
asI106
(lp830
I1
asI107
(lp831
I1
asI108
(lp832
I1
asI109
(lp833
I2
asI110
(lp834
I1
asI111
(lp835
I1
asI112
(lp836
I1
asI113
(lp837
I1
assg3
(g7
S'433333\xd3?'
p838
tp839
Rp840
g13
(g14
tp841
Rp842
I1
(lp843
I4
asI2
(lp844
I4
asI3
(lp845
I4
asI4
(lp846
I3
asI5
(lp847
I4
asI6
(lp848
I4
asI7
(lp849
I4
asI8
(lp850
I3
asI9
(lp851
I3
asI10
(lp852
I4
asI11
(lp853
I4
asI12
(lp854
I4
asI13
(lp855
I4
asI14
(lp856
I4
asI15
(lp857
I4
asI16
(lp858
I3
asI17
(lp859
I4
asI18
(lp860
I4
asI19
(lp861
I4
asI20
(lp862
I4
asI21
(lp863
I4
asI22
(lp864
I4
asI23
(lp865
I4
asI24
(lp866
I4
asI25
(lp867
I4
asI26
(lp868
I4
asI27
(lp869
I4
asI28
(lp870
I4
asI29
(lp871
I4
asI30
(lp872
I4
asI31
(lp873
I3
asI32
(lp874
I4
asI33
(lp875
I4
asI34
(lp876
I4
asI35
(lp877
I4
asI36
(lp878
I4
asI37
(lp879
I4
asI38
(lp880
I4
asI39
(lp881
I4
asI40
(lp882
I5
asI41
(lp883
I5
asI42
(lp884
I4
asI43
(lp885
I4
asI44
(lp886
I5
asI45
(lp887
I4
asI46
(lp888
I4
asI47
(lp889
I5
asI48
(lp890
I1
asI49
(lp891
I4
asI50
(lp892
I5
asI51
(lp893
I4
asI52
(lp894
I5
asI53
(lp895
I4
asI54
(lp896
I4
asI55
(lp897
I5
asI56
(lp898
I4
asI57
(lp899
I4
asI58
(lp900
I4
asI59
(lp901
I5
asI60
(lp902
I4
asI61
(lp903
I4
asI62
(lp904
I4
asI63
(lp905
I4
asI64
(lp906
I4
asI65
(lp907
I5
asI66
(lp908
I5
asI67
(lp909
I4
asI68
(lp910
I4
asI69
(lp911
I5
asI70
(lp912
I6
asI71
(lp913
I6
asI72
(lp914
I5
asI73
(lp915
I6
asI74
(lp916
I4
asI75
(lp917
I2
asI76
(lp918
I2
asI77
(lp919
I4
asI78
(lp920
I6
asI79
(lp921
I3
asI80
(lp922
I5
asI81
(lp923
I6
asI82
(lp924
I5
asI83
(lp925
I5
asI84
(lp926
I5
asI85
(lp927
I5
asI86
(lp928
I5
asI87
(lp929
I1
asI88
(lp930
I2
asI89
(lp931
I1
asI90
(lp932
I1
asI91
(lp933
I1
asI92
(lp934
I2
asI93
(lp935
I5
asI94
(lp936
I1
asI95
(lp937
I1
asI96
(lp938
I1
asI97
(lp939
I2
asI98
(lp940
I1
asI99
(lp941
I1
asI100
(lp942
I1
asI101
(lp943
I1
asI102
(lp944
I1
asI103
(lp945
I1
asI104
(lp946
I1
asI105
(lp947
I1
asI106
(lp948
I1
asI107
(lp949
I1
asI108
(lp950
I1
asI109
(lp951
I1
asI110
(lp952
I1
asI111
(lp953
I1
asI112
(lp954
I1
asI113
(lp955
I1
assg3
(g7
S'\x9a\x99\x99\x99\x99\x99\xb9?'
p956
tp957
Rp958
g13
(g14
tp959
Rp960
I1
(lp961
I4
asI2
(lp962
I5
asI3
(lp963
I4
asI4
(lp964
I5
asI5
(lp965
I5
asI6
(lp966
I4
asI7
(lp967
I4
asI8
(lp968
I5
asI9
(lp969
I5
asI10
(lp970
I5
asI11
(lp971
I5
asI12
(lp972
I5
asI13
(lp973
I5
asI14
(lp974
I5
asI15
(lp975
I4
asI16
(lp976
I5
asI17
(lp977
I5
asI18
(lp978
I6
asI19
(lp979
I5
asI20
(lp980
I5
asI21
(lp981
I5
asI22
(lp982
I6
asI23
(lp983
I5
asI24
(lp984
I6
asI25
(lp985
I6
asI26
(lp986
I5
asI27
(lp987
I5
asI28
(lp988
I5
asI29
(lp989
I7
asI30
(lp990
I5
asI31
(lp991
I6
asI32
(lp992
I5
asI33
(lp993
I7
asI34
(lp994
I2
asI35
(lp995
I6
asI36
(lp996
I6
asI37
(lp997
I3
asI38
(lp998
I7
asI39
(lp999
I5
asI40
(lp1000
I12
asI41
(lp1001
I8
asI42
(lp1002
I5
asI43
(lp1003
I7
asI44
(lp1004
I7
asI45
(lp1005
I8
asI46
(lp1006
I2
asI47
(lp1007
I3
asI48
(lp1008
I6
asI49
(lp1009
I6
asI50
(lp1010
I1
asI51
(lp1011
I6
asI52
(lp1012
I2
asI53
(lp1013
I5
asI54
(lp1014
I7
asI55
(lp1015
I6
asI56
(lp1016
I7
asI57
(lp1017
I8
asI58
(lp1018
I5
asI59
(lp1019
I6
asI60
(lp1020
I8
asI61
(lp1021
I7
asI62
(lp1022
I2
asI63
(lp1023
I5
asI64
(lp1024
I7
asI65
(lp1025
I6
asI66
(lp1026
I6
asI67
(lp1027
I6
asI68
(lp1028
I1
asI69
(lp1029
I8
asI70
(lp1030
I1
asI71
(lp1031
I2
asI72
(lp1032
I7
asI73
(lp1033
I6
asI74
(lp1034
I8
asI75
(lp1035
I8
asI76
(lp1036
I2
asI77
(lp1037
I5
asI78
(lp1038
I2
asI79
(lp1039
I2
asI80
(lp1040
I1
asI81
(lp1041
I3
asI82
(lp1042
I1
asI83
(lp1043
I2
asI84
(lp1044
I1
asI85
(lp1045
I1
asI86
(lp1046
I7
asI87
(lp1047
I1
asI88
(lp1048
I2
asI89
(lp1049
I1
asI90
(lp1050
I1
asI91
(lp1051
I1
asI92
(lp1052
I1
asI93
(lp1053
I1
asI94
(lp1054
I6
asI95
(lp1055
I1
asI96
(lp1056
I1
asI97
(lp1057
I1
asI98
(lp1058
I1
asI99
(lp1059
I1
asI100
(lp1060
I1
asI101
(lp1061
I1
asI102
(lp1062
I1
asI103
(lp1063
I1
asI104
(lp1064
I1
asI105
(lp1065
I1
asI106
(lp1066
I1
asI107
(lp1067
I1
asI108
(lp1068
I1
asI109
(lp1069
I1
asI110
(lp1070
I1
asI111
(lp1071
I1
asI112
(lp1072
I1
asI113
(lp1073
I1
assg3
(g7
S'\xcd\xcc\xcc\xcc\xcc\xcc\xec?'
p1074
tp1075
Rp1076
g13
(g14
tp1077
Rp1078
I1
(lp1079
I3
asI2
(lp1080
I3
asI3
(lp1081
I3
asI4
(lp1082
I3
asI5
(lp1083
I3
asI6
(lp1084
I3
asI7
(lp1085
I3
asI8
(lp1086
I3
asI9
(lp1087
I3
asI10
(lp1088
I3
asI11
(lp1089
I3
asI12
(lp1090
I3
asI13
(lp1091
I3
asI14
(lp1092
I3
asI15
(lp1093
I3
asI16
(lp1094
I3
asI17
(lp1095
I3
asI18
(lp1096
I3
asI19
(lp1097
I3
asI20
(lp1098
I3
asI21
(lp1099
I3
asI22
(lp1100
I3
asI23
(lp1101
I3
asI24
(lp1102
I3
asI25
(lp1103
I3
asI26
(lp1104
I3
asI27
(lp1105
I3
asI28
(lp1106
I3
asI29
(lp1107
I3
asI30
(lp1108
I3
asI31
(lp1109
I3
asI32
(lp1110
I3
asI33
(lp1111
I3
asI34
(lp1112
I4
asI35
(lp1113
I3
asI36
(lp1114
I3
asI37
(lp1115
I4
asI38
(lp1116
I4
asI39
(lp1117
I3
asI40
(lp1118
I3
asI41
(lp1119
I4
asI42
(lp1120
I3
asI43
(lp1121
I3
asI44
(lp1122
I4
asI45
(lp1123
I3
asI46
(lp1124
I3
asI47
(lp1125
I4
asI48
(lp1126
I4
asI49
(lp1127
I4
asI50
(lp1128
I4
asI51
(lp1129
I4
asI52
(lp1130
I4
asI53
(lp1131
I3
asI54
(lp1132
I4
asI55
(lp1133
I4
asI56
(lp1134
I4
asI57
(lp1135
I4
asI58
(lp1136
I4
asI59
(lp1137
I4
asI60
(lp1138
I4
asI61
(lp1139
I4
asI62
(lp1140
I4
asI63
(lp1141
I4
asI64
(lp1142
I3
asI65
(lp1143
I4
asI66
(lp1144
I4
asI67
(lp1145
I3
asI68
(lp1146
I4
asI69
(lp1147
I4
asI70
(lp1148
I4
asI71
(lp1149
I4
asI72
(lp1150
I4
asI73
(lp1151
I4
asI74
(lp1152
I4
asI75
(lp1153
I4
asI76
(lp1154
I6
asI77
(lp1155
I4
asI78
(lp1156
I4
asI79
(lp1157
I4
asI80
(lp1158
I4
asI81
(lp1159
I4
asI82
(lp1160
I4
asI83
(lp1161
I4
asI84
(lp1162
I5
asI85
(lp1163
I4
asI86
(lp1164
I4
asI87
(lp1165
I5
asI88
(lp1166
I5
asI89
(lp1167
I6
asI90
(lp1168
I1
asI91
(lp1169
I1
asI92
(lp1170
I2
asI93
(lp1171
I4
asI94
(lp1172
I4
asI95
(lp1173
I1
asI96
(lp1174
I1
asI97
(lp1175
I4
asI98
(lp1176
I2
asI99
(lp1177
I1
asI100
(lp1178
I1
asI101
(lp1179
I1
asI102
(lp1180
I1
asI103
(lp1181
I1
asI104
(lp1182
I1
asI105
(lp1183
I1
asI106
(lp1184
I4
asI107
(lp1185
I1
asI108
(lp1186
I1
asI109
(lp1187
I2
asI110
(lp1188
I1
asI111
(lp1189
I1
asI112
(lp1190
I1
asI113
(lp1191
I1
assg3
(g7
S'gfffff\xe6?'
p1192
tp1193
Rp1194
g13
(g14
tp1195
Rp1196
I1
(lp1197
I3
asI2
(lp1198
I3
asI3
(lp1199
I3
asI4
(lp1200
I3
asI5
(lp1201
I3
asI6
(lp1202
I3
asI7
(lp1203
I3
asI8
(lp1204
I3
asI9
(lp1205
I3
asI10
(lp1206
I3
asI11
(lp1207
I3
asI12
(lp1208
I3
asI13
(lp1209
I3
asI14
(lp1210
I3
asI15
(lp1211
I3
asI16
(lp1212
I3
asI17
(lp1213
I3
asI18
(lp1214
I3
asI19
(lp1215
I3
asI20
(lp1216
I3
asI21
(lp1217
I3
asI22
(lp1218
I3
asI23
(lp1219
I3
asI24
(lp1220
I3
asI25
(lp1221
I3
asI26
(lp1222
I3
asI27
(lp1223
I3
asI28
(lp1224
I3
asI29
(lp1225
I3
asI30
(lp1226
I3
asI31
(lp1227
I3
asI32
(lp1228
I3
asI33
(lp1229
I4
asI34
(lp1230
I4
asI35
(lp1231
I3
asI36
(lp1232
I3
asI37
(lp1233
I4
asI38
(lp1234
I4
asI39
(lp1235
I4
asI40
(lp1236
I3
asI41
(lp1237
I4
asI42
(lp1238
I4
asI43
(lp1239
I3
asI44
(lp1240
I4
asI45
(lp1241
I3
asI46
(lp1242
I4
asI47
(lp1243
I4
asI48
(lp1244
I5
asI49
(lp1245
I4
asI50
(lp1246
I4
asI51
(lp1247
I4
asI52
(lp1248
I4
asI53
(lp1249
I4
asI54
(lp1250
I4
asI55
(lp1251
I4
asI56
(lp1252
I4
asI57
(lp1253
I4
asI58
(lp1254
I4
asI59
(lp1255
I4
asI60
(lp1256
I4
asI61
(lp1257
I4
asI62
(lp1258
I4
asI63
(lp1259
I4
asI64
(lp1260
I4
asI65
(lp1261
I4
asI66
(lp1262
I4
asI67
(lp1263
I4
asI68
(lp1264
I4
asI69
(lp1265
I4
asI70
(lp1266
I4
asI71
(lp1267
I5
asI72
(lp1268
I4
asI73
(lp1269
I4
asI74
(lp1270
I4
asI75
(lp1271
I4
asI76
(lp1272
I3
asI77
(lp1273
I4
asI78
(lp1274
I4
asI79
(lp1275
I5
asI80
(lp1276
I4
asI81
(lp1277
I5
asI82
(lp1278
I4
asI83
(lp1279
I4
asI84
(lp1280
I5
asI85
(lp1281
I4
asI86
(lp1282
I4
asI87
(lp1283
I5
asI88
(lp1284
I5
asI89
(lp1285
I6
asI90
(lp1286
I1
asI91
(lp1287
I1
asI92
(lp1288
I1
asI93
(lp1289
I2
asI94
(lp1290
I5
asI95
(lp1291
I1
asI96
(lp1292
I1
asI97
(lp1293
I4
asI98
(lp1294
I1
asI99
(lp1295
I6
asI100
(lp1296
I1
asI101
(lp1297
I1
asI102
(lp1298
I1
asI103
(lp1299
I1
asI104
(lp1300
I1
asI105
(lp1301
I1
asI106
(lp1302
I4
asI107
(lp1303
I1
asI108
(lp1304
I1
asI109
(lp1305
I2
asI110
(lp1306
I1
asI111
(lp1307
I1
asI112
(lp1308
I1
asI113
(lp1309
I1
asssS'size'
p1310
(dp1311
g12
g13
(g14
tp1312
Rp1313
I1
(lp1314
F0.008928571428571428
asI2
(lp1315
F0.008928571428571428
asI3
(lp1316
F0.008928571428571428
asI4
(lp1317
F0.008928571428571428
asI5
(lp1318
F0.008928571428571428
asI6
(lp1319
F0.008928571428571428
asI7
(lp1320
F0.008928571428571428
asI8
(lp1321
F0.008928571428571428
asI9
(lp1322
F0.008928571428571428
asI10
(lp1323
F0.008928571428571428
asI11
(lp1324
F0.008928571428571428
asI12
(lp1325
F0.008928571428571428
asI13
(lp1326
F0.008928571428571428
asI14
(lp1327
F0.008928571428571428
asI15
(lp1328
F0.008928571428571428
asI16
(lp1329
F0.008928571428571428
asI17
(lp1330
F0.008928571428571428
asI18
(lp1331
F0.008928571428571428
asI19
(lp1332
F0.008928571428571428
asI20
(lp1333
F0.008928571428571428
asI21
(lp1334
F0.008928571428571428
asI22
(lp1335
F0.008928571428571428
asI23
(lp1336
F0.008928571428571428
asI24
(lp1337
F0.008928571428571428
asI25
(lp1338
F0.008928571428571428
asI26
(lp1339
F0.008928571428571428
asI27
(lp1340
F0.008928571428571428
asI28
(lp1341
F0.008928571428571428
asI29
(lp1342
F0.008928571428571428
asI30
(lp1343
F0.008928571428571428
asI31
(lp1344
F0.008928571428571428
asI32
(lp1345
F0.008928571428571428
asI33
(lp1346
F0.008928571428571428
asI34
(lp1347
F0.008928571428571428
asI35
(lp1348
F0.008928571428571428
asI36
(lp1349
F0.008928571428571428
asI37
(lp1350
F0.008928571428571428
asI38
(lp1351
F0.008928571428571428
asI39
(lp1352
F0.008928571428571428
asI40
(lp1353
F0.008928571428571428
asI41
(lp1354
F0.008928571428571428
asI42
(lp1355
F0.008928571428571428
asI43
(lp1356
F0.008928571428571428
asI44
(lp1357
F0.008928571428571428
asI45
(lp1358
F0.008928571428571428
asI46
(lp1359
F0.008928571428571428
asI47
(lp1360
F0.008928571428571428
asI48
(lp1361
F0.008928571428571428
asI49
(lp1362
F0.008928571428571428
asI50
(lp1363
F0.008928571428571428
asI51
(lp1364
F0.008928571428571428
asI52
(lp1365
F0.008928571428571428
asI53
(lp1366
F0.008928571428571428
asI54
(lp1367
F0.008928571428571428
asI55
(lp1368
F0.008928571428571428
asI56
(lp1369
F0.008928571428571428
asI57
(lp1370
F0.008928571428571428
asI58
(lp1371
F0.008928571428571428
asI59
(lp1372
F0.008928571428571428
asI60
(lp1373
F0.008928571428571428
asI61
(lp1374
F0.008928571428571428
asI62
(lp1375
F0.008928571428571428
asI63
(lp1376
F0.008928571428571428
asI64
(lp1377
F0.008928571428571428
asI65
(lp1378
F0.008928571428571428
asI66
(lp1379
F0.008928571428571428
asI67
(lp1380
F0.008928571428571428
asI68
(lp1381
F0.008928571428571428
asI69
(lp1382
F0.008928571428571428
asI70
(lp1383
F0.008928571428571428
asI71
(lp1384
F0.008928571428571428
asI72
(lp1385
F0.008928571428571428
asI73
(lp1386
F0.008928571428571428
asI74
(lp1387
F0.008928571428571428
asI75
(lp1388
F0.008928571428571428
asI76
(lp1389
F0.008928571428571428
asI77
(lp1390
F0.008928571428571428
asI78
(lp1391
F0.008928571428571428
asI79
(lp1392
F0.008928571428571428
asI80
(lp1393
F0.008928571428571428
asI81
(lp1394
F0.008928571428571428
asI82
(lp1395
F0.008928571428571428
asI83
(lp1396
F0.008928571428571428
asI84
(lp1397
F0.008928571428571428
asI85
(lp1398
F0.008928571428571428
asI86
(lp1399
F0.008928571428571428
asI87
(lp1400
F0.008928571428571428
asI88
(lp1401
F0.008928571428571428
asI89
(lp1402
F0.008928571428571428
asI90
(lp1403
F0.008928571428571428
asI91
(lp1404
F0.008928571428571428
asI92
(lp1405
F0.008928571428571428
asI93
(lp1406
F0.008928571428571428
asI94
(lp1407
F0.008928571428571428
asI95
(lp1408
F0.008928571428571428
asI96
(lp1409
F0.008928571428571428
asI97
(lp1410
F0.008928571428571428
asI98
(lp1411
F0.008928571428571428
asI99
(lp1412
F0.008928571428571428
asI100
(lp1413
F0.008928571428571428
asI101
(lp1414
F0.008928571428571428
asI102
(lp1415
F0.008928571428571428
asI103
(lp1416
F0.008928571428571428
asI104
(lp1417
F0.008928571428571428
asI105
(lp1418
F0.008928571428571428
asI106
(lp1419
F0.008928571428571428
asI107
(lp1420
F0.008928571428571428
asI108
(lp1421
F0.008928571428571428
asI109
(lp1422
F0.008928571428571428
asI110
(lp1423
F0.008928571428571428
asI111
(lp1424
F0.008928571428571428
asI112
(lp1425
F0.008928571428571428
asI113
(lp1426
F0.0
assg132
g13
(g14
tp1427
Rp1428
I1
(lp1429
F1.0
asI2
(lp1430
F1.0
asI3
(lp1431
F1.0
asI4
(lp1432
F1.0
asI5
(lp1433
F1.0
asI6
(lp1434
F1.0
asI7
(lp1435
F1.0
asI8
(lp1436
F1.0
asI9
(lp1437
F1.0
asI10
(lp1438
F1.0
asI11
(lp1439
F1.0
asI12
(lp1440
F1.0
asI13
(lp1441
F1.0
asI14
(lp1442
F1.0
asI15
(lp1443
F1.0
asI16
(lp1444
F1.0
asI17
(lp1445
F1.0
asI18
(lp1446
F1.0
asI19
(lp1447
F1.0
asI20
(lp1448
F1.0
asI21
(lp1449
F1.0
asI22
(lp1450
F1.0
asI23
(lp1451
F1.0
asI24
(lp1452
F1.0
asI25
(lp1453
F1.0
asI26
(lp1454
F1.0
asI27
(lp1455
F1.0
asI28
(lp1456
F1.0
asI29
(lp1457
F1.0
asI30
(lp1458
F1.0
asI31
(lp1459
F1.0
asI32
(lp1460
F1.0
asI33
(lp1461
F1.0
asI34
(lp1462
F1.0
asI35
(lp1463
F1.0
asI36
(lp1464
F1.0
asI37
(lp1465
F1.0
asI38
(lp1466
F1.0
asI39
(lp1467
F1.0
asI40
(lp1468
F1.0
asI41
(lp1469
F1.0
asI42
(lp1470
F1.0
asI43
(lp1471
F1.0
asI44
(lp1472
F1.0
asI45
(lp1473
F1.0
asI46
(lp1474
F1.0
asI47
(lp1475
F1.0
asI48
(lp1476
F1.0
asI49
(lp1477
F1.0
asI50
(lp1478
F1.0
asI51
(lp1479
F1.0
asI52
(lp1480
F1.0
asI53
(lp1481
F1.0
asI54
(lp1482
F1.0
asI55
(lp1483
F1.0
asI56
(lp1484
F1.0
asI57
(lp1485
F1.0
asI58
(lp1486
F1.0
asI59
(lp1487
F1.0
asI60
(lp1488
F1.0
asI61
(lp1489
F1.0
asI62
(lp1490
F1.0
asI63
(lp1491
F1.0
asI64
(lp1492
F1.0
asI65
(lp1493
F1.0
asI66
(lp1494
F1.0
asI67
(lp1495
F1.0
asI68
(lp1496
F1.0
asI69
(lp1497
F1.0
asI70
(lp1498
F1.0
asI71
(lp1499
F1.0
asI72
(lp1500
F1.0
asI73
(lp1501
F1.0
asI74
(lp1502
F1.0
asI75
(lp1503
F1.0
asI76
(lp1504
F1.0
asI77
(lp1505
F1.0
asI78
(lp1506
F1.0
asI79
(lp1507
F1.0
asI80
(lp1508
F1.0
asI81
(lp1509
F1.0
asI82
(lp1510
F1.0
asI83
(lp1511
F1.0
asI84
(lp1512
F1.0
asI85
(lp1513
F0.026785714285714284
asI86
(lp1514
F1.0
asI87
(lp1515
F0.008928571428571428
asI88
(lp1516
F1.0
asI89
(lp1517
F0.008928571428571428
asI90
(lp1518
F0.008928571428571428
asI91
(lp1519
F0.008928571428571428
asI92
(lp1520
F0.008928571428571428
asI93
(lp1521
F1.0
asI94
(lp1522
F1.0
asI95
(lp1523
F0.008928571428571428
asI96
(lp1524
F0.008928571428571428
asI97
(lp1525
F1.0
asI98
(lp1526
F0.017857142857142856
asI99
(lp1527
F1.0
asI100
(lp1528
F0.008928571428571428
asI101
(lp1529
F0.008928571428571428
asI102
(lp1530
F0.008928571428571428
asI103
(lp1531
F0.008928571428571428
asI104
(lp1532
F0.008928571428571428
asI105
(lp1533
F0.008928571428571428
asI106
(lp1534
F1.0
asI107
(lp1535
F0.008928571428571428
asI108
(lp1536
F0.008928571428571428
asI109
(lp1537
F0.008928571428571428
asI110
(lp1538
F0.008928571428571428
asI111
(lp1539
F0.008928571428571428
asI112
(lp1540
F0.008928571428571428
asI113
(lp1541
F0.0
assg250
g13
(g14
tp1542
Rp1543
I1
(lp1544
F1.0
asI2
(lp1545
F1.0
asI3
(lp1546
F1.0
asI4
(lp1547
F1.0
asI5
(lp1548
F0.9910714285714286
asI6
(lp1549
F1.0
asI7
(lp1550
F1.0
asI8
(lp1551
F1.0
asI9
(lp1552
F1.0
asI10
(lp1553
F0.9910714285714286
asI11
(lp1554
F0.9910714285714286
asI12
(lp1555
F1.0
asI13
(lp1556
F1.0
asI14
(lp1557
F1.0
asI15
(lp1558
F1.0
asI16
(lp1559
F0.9910714285714286
asI17
(lp1560
F1.0
asI18
(lp1561
F1.0
asI19
(lp1562
F1.0
asI20
(lp1563
F1.0
asI21
(lp1564
F1.0
asI22
(lp1565
F1.0
asI23
(lp1566
F1.0
asI24
(lp1567
F1.0
asI25
(lp1568
F0.9910714285714286
asI26
(lp1569
F0.9910714285714286
asI27
(lp1570
F1.0
asI28
(lp1571
F1.0
asI29
(lp1572
F1.0
asI30
(lp1573
F0.9910714285714286
asI31
(lp1574
F1.0
asI32
(lp1575
F1.0
asI33
(lp1576
F0.9910714285714286
asI34
(lp1577
F1.0
asI35
(lp1578
F0.9910714285714286
asI36
(lp1579
F0.9910714285714286
asI37
(lp1580
F1.0
asI38
(lp1581
F1.0
asI39
(lp1582
F1.0
asI40
(lp1583
F1.0
asI41
(lp1584
F1.0
asI42
(lp1585
F1.0
asI43
(lp1586
F1.0
asI44
(lp1587
F0.9910714285714286
asI45
(lp1588
F1.0
asI46
(lp1589
F1.0
asI47
(lp1590
F1.0
asI48
(lp1591
F0.9910714285714286
asI49
(lp1592
F1.0
asI50
(lp1593
F1.0
asI51
(lp1594
F0.9821428571428571
asI52
(lp1595
F1.0
asI53
(lp1596
F1.0
asI54
(lp1597
F0.9910714285714286
asI55
(lp1598
F1.0
asI56
(lp1599
F1.0
asI57
(lp1600
F1.0
asI58
(lp1601
F1.0
asI59
(lp1602
F1.0
asI60
(lp1603
F1.0
asI61
(lp1604
F1.0
asI62
(lp1605
F1.0
asI63
(lp1606
F1.0
asI64
(lp1607
F1.0
asI65
(lp1608
F1.0
asI66
(lp1609
F1.0
asI67
(lp1610
F1.0
asI68
(lp1611
F0.008928571428571428
asI69
(lp1612
F1.0
asI70
(lp1613
F1.0
asI71
(lp1614
F1.0
asI72
(lp1615
F1.0
asI73
(lp1616
F1.0
asI74
(lp1617
F1.0
asI75
(lp1618
F1.0
asI76
(lp1619
F0.017857142857142856
asI77
(lp1620
F1.0
asI78
(lp1621
F1.0
asI79
(lp1622
F0.008928571428571428
asI80
(lp1623
F1.0
asI81
(lp1624
F0.008928571428571428
asI82
(lp1625
F0.9910714285714286
asI83
(lp1626
F0.03571428571428571
asI84
(lp1627
F1.0
asI85
(lp1628
F0.017857142857142856
asI86
(lp1629
F0.026785714285714284
asI87
(lp1630
F0.008928571428571428
asI88
(lp1631
F0.017857142857142856
asI89
(lp1632
F0.008928571428571428
asI90
(lp1633
F0.008928571428571428
asI91
(lp1634
F0.008928571428571428
asI92
(lp1635
F0.008928571428571428
asI93
(lp1636
F0.008928571428571428
asI94
(lp1637
F1.0
asI95
(lp1638
F0.008928571428571428
asI96
(lp1639
F0.008928571428571428
asI97
(lp1640
F0.008928571428571428
asI98
(lp1641
F0.017857142857142856
asI99
(lp1642
F0.008928571428571428
asI100
(lp1643
F0.008928571428571428
asI101
(lp1644
F0.008928571428571428
asI102
(lp1645
F0.008928571428571428
asI103
(lp1646
F0.008928571428571428
asI104
(lp1647
F0.008928571428571428
asI105
(lp1648
F0.008928571428571428
asI106
(lp1649
F0.008928571428571428
asI107
(lp1650
F0.008928571428571428
asI108
(lp1651
F0.008928571428571428
asI109
(lp1652
F0.017857142857142856
asI110
(lp1653
F0.008928571428571428
asI111
(lp1654
F0.008928571428571428
asI112
(lp1655
F0.008928571428571428
asI113
(lp1656
F0.0
assg368
g13
(g14
tp1657
Rp1658
I1
(lp1659
F1.0
asI2
(lp1660
F1.0
asI3
(lp1661
F1.0
asI4
(lp1662
F1.0
asI5
(lp1663
F1.0
asI6
(lp1664
F1.0
asI7
(lp1665
F1.0
asI8
(lp1666
F1.0
asI9
(lp1667
F1.0
asI10
(lp1668
F1.0
asI11
(lp1669
F1.0
asI12
(lp1670
F1.0
asI13
(lp1671
F1.0
asI14
(lp1672
F1.0
asI15
(lp1673
F1.0
asI16
(lp1674
F1.0
asI17
(lp1675
F1.0
asI18
(lp1676
F1.0
asI19
(lp1677
F1.0
asI20
(lp1678
F1.0
asI21
(lp1679
F1.0
asI22
(lp1680
F1.0
asI23
(lp1681
F1.0
asI24
(lp1682
F1.0
asI25
(lp1683
F1.0
asI26
(lp1684
F1.0
asI27
(lp1685
F1.0
asI28
(lp1686
F1.0
asI29
(lp1687
F1.0
asI30
(lp1688
F1.0
asI31
(lp1689
F1.0
asI32
(lp1690
F1.0
asI33
(lp1691
F1.0
asI34
(lp1692
F1.0
asI35
(lp1693
F1.0
asI36
(lp1694
F1.0
asI37
(lp1695
F1.0
asI38
(lp1696
F1.0
asI39
(lp1697
F1.0
asI40
(lp1698
F1.0
asI41
(lp1699
F1.0
asI42
(lp1700
F1.0
asI43
(lp1701
F1.0
asI44
(lp1702
F1.0
asI45
(lp1703
F1.0
asI46
(lp1704
F1.0
asI47
(lp1705
F1.0
asI48
(lp1706
F1.0
asI49
(lp1707
F1.0
asI50
(lp1708
F1.0
asI51
(lp1709
F1.0
asI52
(lp1710
F0.03571428571428571
asI53
(lp1711
F1.0
asI54
(lp1712
F1.0
asI55
(lp1713
F1.0
asI56
(lp1714
F1.0
asI57
(lp1715
F1.0
asI58
(lp1716
F1.0
asI59
(lp1717
F1.0
asI60
(lp1718
F1.0
asI61
(lp1719
F1.0
asI62
(lp1720
F1.0
asI63
(lp1721
F1.0
asI64
(lp1722
F1.0
asI65
(lp1723
F1.0
asI66
(lp1724
F1.0
asI67
(lp1725
F1.0
asI68
(lp1726
F1.0
asI69
(lp1727
F1.0
asI70
(lp1728
F1.0
asI71
(lp1729
F1.0
asI72
(lp1730
F1.0
asI73
(lp1731
F1.0
asI74
(lp1732
F1.0
asI75
(lp1733
F1.0
asI76
(lp1734
F0.026785714285714284
asI77
(lp1735
F1.0
asI78
(lp1736
F1.0
asI79
(lp1737
F0.008928571428571428
asI80
(lp1738
F1.0
asI81
(lp1739
F0.008928571428571428
asI82
(lp1740
F1.0
asI83
(lp1741
F1.0
asI84
(lp1742
F1.0
asI85
(lp1743
F1.0
asI86
(lp1744
F1.0
asI87
(lp1745
F0.017857142857142856
asI88
(lp1746
F0.017857142857142856
asI89
(lp1747
F0.008928571428571428
asI90
(lp1748
F0.008928571428571428
asI91
(lp1749
F0.008928571428571428
asI92
(lp1750
F0.008928571428571428
asI93
(lp1751
F1.0
asI94
(lp1752
F1.0
asI95
(lp1753
F0.008928571428571428
asI96
(lp1754
F0.008928571428571428
asI97
(lp1755
F1.0
asI98
(lp1756
F0.017857142857142856
asI99
(lp1757
F1.0
asI100
(lp1758
F0.008928571428571428
asI101
(lp1759
F0.008928571428571428
asI102
(lp1760
F0.008928571428571428
asI103
(lp1761
F0.008928571428571428
asI104
(lp1762
F0.008928571428571428
asI105
(lp1763
F0.008928571428571428
asI106
(lp1764
F0.008928571428571428
asI107
(lp1765
F0.008928571428571428
asI108
(lp1766
F0.008928571428571428
asI109
(lp1767
F0.017857142857142856
asI110
(lp1768
F0.008928571428571428
asI111
(lp1769
F0.008928571428571428
asI112
(lp1770
F0.008928571428571428
asI113
(lp1771
F0.0
assg486
g13
(g14
tp1772
Rp1773
I1
(lp1774
F1.0
asI2
(lp1775
F1.0
asI3
(lp1776
F1.0
asI4
(lp1777
F1.0
asI5
(lp1778
F1.0
asI6
(lp1779
F1.0
asI7
(lp1780
F1.0
asI8
(lp1781
F1.0
asI9
(lp1782
F1.0
asI10
(lp1783
F1.0
asI11
(lp1784
F1.0
asI12
(lp1785
F1.0
asI13
(lp1786
F1.0
asI14
(lp1787
F1.0
asI15
(lp1788
F1.0
asI16
(lp1789
F1.0
asI17
(lp1790
F1.0
asI18
(lp1791
F1.0
asI19
(lp1792
F1.0
asI20
(lp1793
F1.0
asI21
(lp1794
F1.0
asI22
(lp1795
F1.0
asI23
(lp1796
F1.0
asI24
(lp1797
F1.0
asI25
(lp1798
F1.0
asI26
(lp1799
F1.0
asI27
(lp1800
F1.0
asI28
(lp1801
F1.0
asI29
(lp1802
F1.0
asI30
(lp1803
F1.0
asI31
(lp1804
F1.0
asI32
(lp1805
F1.0
asI33
(lp1806
F1.0
asI34
(lp1807
F1.0
asI35
(lp1808
F1.0
asI36
(lp1809
F1.0
asI37
(lp1810
F1.0
asI38
(lp1811
F1.0
asI39
(lp1812
F1.0
asI40
(lp1813
F1.0
asI41
(lp1814
F1.0
asI42
(lp1815
F1.0
asI43
(lp1816
F1.0
asI44
(lp1817
F1.0
asI45
(lp1818
F1.0
asI46
(lp1819
F1.0
asI47
(lp1820
F1.0
asI48
(lp1821
F1.0
asI49
(lp1822
F1.0
asI50
(lp1823
F1.0
asI51
(lp1824
F1.0
asI52
(lp1825
F1.0
asI53
(lp1826
F1.0
asI54
(lp1827
F1.0
asI55
(lp1828
F1.0
asI56
(lp1829
F1.0
asI57
(lp1830
F1.0
asI58
(lp1831
F1.0
asI59
(lp1832
F1.0
asI60
(lp1833
F1.0
asI61
(lp1834
F1.0
asI62
(lp1835
F1.0
asI63
(lp1836
F1.0
asI64
(lp1837
F1.0
asI65
(lp1838
F1.0
asI66
(lp1839
F1.0
asI67
(lp1840
F1.0
asI68
(lp1841
F1.0
asI69
(lp1842
F1.0
asI70
(lp1843
F1.0
asI71
(lp1844
F1.0
asI72
(lp1845
F1.0
asI73
(lp1846
F1.0
asI74
(lp1847
F1.0
asI75
(lp1848
F1.0
asI76
(lp1849
F1.0
asI77
(lp1850
F1.0
asI78
(lp1851
F1.0
asI79
(lp1852
F1.0
asI80
(lp1853
F1.0
asI81
(lp1854
F1.0
asI82
(lp1855
F1.0
asI83
(lp1856
F1.0
asI84
(lp1857
F1.0
asI85
(lp1858
F1.0
asI86
(lp1859
F1.0
asI87
(lp1860
F1.0
asI88
(lp1861
F1.0
asI89
(lp1862
F1.0
asI90
(lp1863
F0.008928571428571428
asI91
(lp1864
F0.008928571428571428
asI92
(lp1865
F0.017857142857142856
asI93
(lp1866
F1.0
asI94
(lp1867
F1.0
asI95
(lp1868
F0.008928571428571428
asI96
(lp1869
F0.008928571428571428
asI97
(lp1870
F1.0
asI98
(lp1871
F0.017857142857142856
asI99
(lp1872
F1.0
asI100
(lp1873
F0.008928571428571428
asI101
(lp1874
F0.008928571428571428
asI102
(lp1875
F0.008928571428571428
asI103
(lp1876
F0.008928571428571428
asI104
(lp1877
F0.008928571428571428
asI105
(lp1878
F0.008928571428571428
asI106
(lp1879
F1.0
asI107
(lp1880
F0.008928571428571428
asI108
(lp1881
F0.008928571428571428
asI109
(lp1882
F0.017857142857142856
asI110
(lp1883
F0.008928571428571428
asI111
(lp1884
F0.008928571428571428
asI112
(lp1885
F0.008928571428571428
asI113
(lp1886
F0.0
assg604
g13
(g14
tp1887
Rp1888
I1
(lp1889
F1.0
asI2
(lp1890
F1.0
asI3
(lp1891
F1.0
asI4
(lp1892
F1.0
asI5
(lp1893
F1.0
asI6
(lp1894
F1.0
asI7
(lp1895
F1.0
asI8
(lp1896
F1.0
asI9
(lp1897
F1.0
asI10
(lp1898
F1.0
asI11
(lp1899
F1.0
asI12
(lp1900
F1.0
asI13
(lp1901
F1.0
asI14
(lp1902
F1.0
asI15
(lp1903
F1.0
asI16
(lp1904
F1.0
asI17
(lp1905
F1.0
asI18
(lp1906
F1.0
asI19
(lp1907
F1.0
asI20
(lp1908
F1.0
asI21
(lp1909
F1.0
asI22
(lp1910
F1.0
asI23
(lp1911
F1.0
asI24
(lp1912
F1.0
asI25
(lp1913
F1.0
asI26
(lp1914
F1.0
asI27
(lp1915
F1.0
asI28
(lp1916
F1.0
asI29
(lp1917
F1.0
asI30
(lp1918
F1.0
asI31
(lp1919
F1.0
asI32
(lp1920
F1.0
asI33
(lp1921
F1.0
asI34
(lp1922
F1.0
asI35
(lp1923
F1.0
asI36
(lp1924
F1.0
asI37
(lp1925
F1.0
asI38
(lp1926
F1.0
asI39
(lp1927
F1.0
asI40
(lp1928
F1.0
asI41
(lp1929
F1.0
asI42
(lp1930
F1.0
asI43
(lp1931
F1.0
asI44
(lp1932
F1.0
asI45
(lp1933
F1.0
asI46
(lp1934
F1.0
asI47
(lp1935
F1.0
asI48
(lp1936
F1.0
asI49
(lp1937
F1.0
asI50
(lp1938
F1.0
asI51
(lp1939
F1.0
asI52
(lp1940
F1.0
asI53
(lp1941
F1.0
asI54
(lp1942
F1.0
asI55
(lp1943
F1.0
asI56
(lp1944
F1.0
asI57
(lp1945
F1.0
asI58
(lp1946
F1.0
asI59
(lp1947
F1.0
asI60
(lp1948
F1.0
asI61
(lp1949
F1.0
asI62
(lp1950
F1.0
asI63
(lp1951
F1.0
asI64
(lp1952
F1.0
asI65
(lp1953
F1.0
asI66
(lp1954
F1.0
asI67
(lp1955
F1.0
asI68
(lp1956
F1.0
asI69
(lp1957
F1.0
asI70
(lp1958
F1.0
asI71
(lp1959
F1.0
asI72
(lp1960
F1.0
asI73
(lp1961
F1.0
asI74
(lp1962
F1.0
asI75
(lp1963
F1.0
asI76
(lp1964
F1.0
asI77
(lp1965
F1.0
asI78
(lp1966
F1.0
asI79
(lp1967
F1.0
asI80
(lp1968
F1.0
asI81
(lp1969
F1.0
asI82
(lp1970
F1.0
asI83
(lp1971
F1.0
asI84
(lp1972
F1.0
asI85
(lp1973
F1.0
asI86
(lp1974
F1.0
asI87
(lp1975
F1.0
asI88
(lp1976
F1.0
asI89
(lp1977
F0.008928571428571428
asI90
(lp1978
F0.008928571428571428
asI91
(lp1979
F0.008928571428571428
asI92
(lp1980
F0.017857142857142856
asI93
(lp1981
F1.0
asI94
(lp1982
F1.0
asI95
(lp1983
F0.008928571428571428
asI96
(lp1984
F0.008928571428571428
asI97
(lp1985
F1.0
asI98
(lp1986
F0.017857142857142856
asI99
(lp1987
F0.008928571428571428
asI100
(lp1988
F0.008928571428571428
asI101
(lp1989
F0.008928571428571428
asI102
(lp1990
F0.008928571428571428
asI103
(lp1991
F0.008928571428571428
asI104
(lp1992
F0.008928571428571428
asI105
(lp1993
F0.008928571428571428
asI106
(lp1994
F1.0
asI107
(lp1995
F0.008928571428571428
asI108
(lp1996
F0.008928571428571428
asI109
(lp1997
F0.017857142857142856
asI110
(lp1998
F0.008928571428571428
asI111
(lp1999
F0.008928571428571428
asI112
(lp2000
F0.008928571428571428
asI113
(lp2001
F0.0
assg722
g13
(g14
tp2002
Rp2003
I1
(lp2004
F1.0
asI2
(lp2005
F1.0
asI3
(lp2006
F1.0
asI4
(lp2007
F1.0
asI5
(lp2008
F1.0
asI6
(lp2009
F1.0
asI7
(lp2010
F1.0
asI8
(lp2011
F1.0
asI9
(lp2012
F1.0
asI10
(lp2013
F1.0
asI11
(lp2014
F1.0
asI12
(lp2015
F1.0
asI13
(lp2016
F1.0
asI14
(lp2017
F1.0
asI15
(lp2018
F1.0
asI16
(lp2019
F1.0
asI17
(lp2020
F1.0
asI18
(lp2021
F1.0
asI19
(lp2022
F1.0
asI20
(lp2023
F1.0
asI21
(lp2024
F1.0
asI22
(lp2025
F1.0
asI23
(lp2026
F1.0
asI24
(lp2027
F1.0
asI25
(lp2028
F1.0
asI26
(lp2029
F1.0
asI27
(lp2030
F1.0
asI28
(lp2031
F1.0
asI29
(lp2032
F1.0
asI30
(lp2033
F1.0
asI31
(lp2034
F1.0
asI32
(lp2035
F1.0
asI33
(lp2036
F1.0
asI34
(lp2037
F1.0
asI35
(lp2038
F1.0
asI36
(lp2039
F1.0
asI37
(lp2040
F1.0
asI38
(lp2041
F1.0
asI39
(lp2042
F1.0
asI40
(lp2043
F1.0
asI41
(lp2044
F1.0
asI42
(lp2045
F1.0
asI43
(lp2046
F1.0
asI44
(lp2047
F1.0
asI45
(lp2048
F1.0
asI46
(lp2049
F1.0
asI47
(lp2050
F1.0
asI48
(lp2051
F1.0
asI49
(lp2052
F1.0
asI50
(lp2053
F1.0
asI51
(lp2054
F1.0
asI52
(lp2055
F1.0
asI53
(lp2056
F1.0
asI54
(lp2057
F1.0
asI55
(lp2058
F1.0
asI56
(lp2059
F1.0
asI57
(lp2060
F1.0
asI58
(lp2061
F1.0
asI59
(lp2062
F1.0
asI60
(lp2063
F1.0
asI61
(lp2064
F1.0
asI62
(lp2065
F1.0
asI63
(lp2066
F1.0
asI64
(lp2067
F1.0
asI65
(lp2068
F1.0
asI66
(lp2069
F1.0
asI67
(lp2070
F1.0
asI68
(lp2071
F1.0
asI69
(lp2072
F1.0
asI70
(lp2073
F1.0
asI71
(lp2074
F1.0
asI72
(lp2075
F1.0
asI73
(lp2076
F1.0
asI74
(lp2077
F1.0
asI75
(lp2078
F1.0
asI76
(lp2079
F0.044642857142857144
asI77
(lp2080
F1.0
asI78
(lp2081
F1.0
asI79
(lp2082
F1.0
asI80
(lp2083
F1.0
asI81
(lp2084
F1.0
asI82
(lp2085
F1.0
asI83
(lp2086
F1.0
asI84
(lp2087
F1.0
asI85
(lp2088
F1.0
asI86
(lp2089
F1.0
asI87
(lp2090
F1.0
asI88
(lp2091
F1.0
asI89
(lp2092
F1.0
asI90
(lp2093
F0.008928571428571428
asI91
(lp2094
F0.008928571428571428
asI92
(lp2095
F0.008928571428571428
asI93
(lp2096
F1.0
asI94
(lp2097
F0.008928571428571428
asI95
(lp2098
F0.008928571428571428
asI96
(lp2099
F0.008928571428571428
asI97
(lp2100
F1.0
asI98
(lp2101
F0.017857142857142856
asI99
(lp2102
F1.0
asI100
(lp2103
F0.008928571428571428
asI101
(lp2104
F0.008928571428571428
asI102
(lp2105
F0.008928571428571428
asI103
(lp2106
F0.008928571428571428
asI104
(lp2107
F0.008928571428571428
asI105
(lp2108
F0.008928571428571428
asI106
(lp2109
F0.008928571428571428
asI107
(lp2110
F0.008928571428571428
asI108
(lp2111
F0.008928571428571428
asI109
(lp2112
F0.017857142857142856
asI110
(lp2113
F0.008928571428571428
asI111
(lp2114
F0.008928571428571428
asI112
(lp2115
F0.008928571428571428
asI113
(lp2116
F0.0
assg840
g13
(g14
tp2117
Rp2118
I1
(lp2119
F1.0
asI2
(lp2120
F1.0
asI3
(lp2121
F1.0
asI4
(lp2122
F1.0
asI5
(lp2123
F1.0
asI6
(lp2124
F1.0
asI7
(lp2125
F1.0
asI8
(lp2126
F1.0
asI9
(lp2127
F1.0
asI10
(lp2128
F1.0
asI11
(lp2129
F1.0
asI12
(lp2130
F1.0
asI13
(lp2131
F1.0
asI14
(lp2132
F1.0
asI15
(lp2133
F1.0
asI16
(lp2134
F1.0
asI17
(lp2135
F1.0
asI18
(lp2136
F1.0
asI19
(lp2137
F1.0
asI20
(lp2138
F1.0
asI21
(lp2139
F1.0
asI22
(lp2140
F0.9910714285714286
asI23
(lp2141
F1.0
asI24
(lp2142
F1.0
asI25
(lp2143
F1.0
asI26
(lp2144
F1.0
asI27
(lp2145
F1.0
asI28
(lp2146
F1.0
asI29
(lp2147
F1.0
asI30
(lp2148
F1.0
asI31
(lp2149
F1.0
asI32
(lp2150
F1.0
asI33
(lp2151
F1.0
asI34
(lp2152
F1.0
asI35
(lp2153
F1.0
asI36
(lp2154
F1.0
asI37
(lp2155
F1.0
asI38
(lp2156
F1.0
asI39
(lp2157
F1.0
asI40
(lp2158
F1.0
asI41
(lp2159
F1.0
asI42
(lp2160
F1.0
asI43
(lp2161
F1.0
asI44
(lp2162
F1.0
asI45
(lp2163
F1.0
asI46
(lp2164
F1.0
asI47
(lp2165
F0.9910714285714286
asI48
(lp2166
F0.008928571428571428
asI49
(lp2167
F1.0
asI50
(lp2168
F1.0
asI51
(lp2169
F1.0
asI52
(lp2170
F1.0
asI53
(lp2171
F1.0
asI54
(lp2172
F1.0
asI55
(lp2173
F1.0
asI56
(lp2174
F1.0
asI57
(lp2175
F1.0
asI58
(lp2176
F1.0
asI59
(lp2177
F1.0
asI60
(lp2178
F1.0
asI61
(lp2179
F1.0
asI62
(lp2180
F1.0
asI63
(lp2181
F1.0
asI64
(lp2182
F0.9910714285714286
asI65
(lp2183
F1.0
asI66
(lp2184
F1.0
asI67
(lp2185
F1.0
asI68
(lp2186
F1.0
asI69
(lp2187
F1.0
asI70
(lp2188
F1.0
asI71
(lp2189
F1.0
asI72
(lp2190
F1.0
asI73
(lp2191
F1.0
asI74
(lp2192
F1.0
asI75
(lp2193
F0.05357142857142857
asI76
(lp2194
F0.017857142857142856
asI77
(lp2195
F1.0
asI78
(lp2196
F1.0
asI79
(lp2197
F0.026785714285714284
asI80
(lp2198
F1.0
asI81
(lp2199
F1.0
asI82
(lp2200
F1.0
asI83
(lp2201
F1.0
asI84
(lp2202
F1.0
asI85
(lp2203
F1.0
asI86
(lp2204
F1.0
asI87
(lp2205
F0.008928571428571428
asI88
(lp2206
F0.017857142857142856
asI89
(lp2207
F0.008928571428571428
asI90
(lp2208
F0.008928571428571428
asI91
(lp2209
F0.008928571428571428
asI92
(lp2210
F0.017857142857142856
asI93
(lp2211
F1.0
asI94
(lp2212
F0.008928571428571428
asI95
(lp2213
F0.008928571428571428
asI96
(lp2214
F0.008928571428571428
asI97
(lp2215
F0.017857142857142856
asI98
(lp2216
F0.008928571428571428
asI99
(lp2217
F0.008928571428571428
asI100
(lp2218
F0.008928571428571428
asI101
(lp2219
F0.008928571428571428
asI102
(lp2220
F0.008928571428571428
asI103
(lp2221
F0.008928571428571428
asI104
(lp2222
F0.008928571428571428
asI105
(lp2223
F0.008928571428571428
asI106
(lp2224
F0.008928571428571428
asI107
(lp2225
F0.008928571428571428
asI108
(lp2226
F0.008928571428571428
asI109
(lp2227
F0.008928571428571428
asI110
(lp2228
F0.008928571428571428
asI111
(lp2229
F0.008928571428571428
asI112
(lp2230
F0.008928571428571428
asI113
(lp2231
F0.0
assg958
g13
(g14
tp2232
Rp2233
I1
(lp2234
F0.9821428571428571
asI2
(lp2235
F1.0
asI3
(lp2236
F0.9821428571428571
asI4
(lp2237
F0.9821428571428571
asI5
(lp2238
F1.0
asI6
(lp2239
F0.9910714285714286
asI7
(lp2240
F0.9821428571428571
asI8
(lp2241
F0.9910714285714286
asI9
(lp2242
F0.9642857142857143
asI10
(lp2243
F0.9732142857142857
asI11
(lp2244
F0.9732142857142857
asI12
(lp2245
F0.9732142857142857
asI13
(lp2246
F0.9910714285714286
asI14
(lp2247
F0.9821428571428571
asI15
(lp2248
F0.9732142857142857
asI16
(lp2249
F1.0
asI17
(lp2250
F1.0
asI18
(lp2251
F0.9732142857142857
asI19
(lp2252
F0.9910714285714286
asI20
(lp2253
F0.9821428571428571
asI21
(lp2254
F0.9821428571428571
asI22
(lp2255
F0.9732142857142857
asI23
(lp2256
F0.9464285714285714
asI24
(lp2257
F0.9910714285714286
asI25
(lp2258
F1.0
asI26
(lp2259
F1.0
asI27
(lp2260
F1.0
asI28
(lp2261
F0.9732142857142857
asI29
(lp2262
F0.9821428571428571
asI30
(lp2263
F0.9732142857142857
asI31
(lp2264
F0.9910714285714286
asI32
(lp2265
F0.9732142857142857
asI33
(lp2266
F0.9732142857142857
asI34
(lp2267
F0.03571428571428571
asI35
(lp2268
F0.9910714285714286
asI36
(lp2269
F0.9910714285714286
asI37
(lp2270
F0.0625
asI38
(lp2271
F0.9732142857142857
asI39
(lp2272
F0.9642857142857143
asI40
(lp2273
F0.9732142857142857
asI41
(lp2274
F1.0
asI42
(lp2275
F0.9821428571428571
asI43
(lp2276
F0.9821428571428571
asI44
(lp2277
F0.9910714285714286
asI45
(lp2278
F0.9910714285714286
asI46
(lp2279
F0.026785714285714284
asI47
(lp2280
F0.05357142857142857
asI48
(lp2281
F1.0
asI49
(lp2282
F0.9821428571428571
asI50
(lp2283
F0.008928571428571428
asI51
(lp2284
F0.9821428571428571
asI52
(lp2285
F0.017857142857142856
asI53
(lp2286
F0.9910714285714286
asI54
(lp2287
F0.9732142857142857
asI55
(lp2288
F0.9732142857142857
asI56
(lp2289
F1.0
asI57
(lp2290
F0.9821428571428571
asI58
(lp2291
F0.9821428571428571
asI59
(lp2292
F0.9821428571428571
asI60
(lp2293
F1.0
asI61
(lp2294
F0.9732142857142857
asI62
(lp2295
F0.026785714285714284
asI63
(lp2296
F0.09821428571428571
asI64
(lp2297
F0.9821428571428571
asI65
(lp2298
F0.9910714285714286
asI66
(lp2299
F0.9910714285714286
asI67
(lp2300
F1.0
asI68
(lp2301
F0.008928571428571428
asI69
(lp2302
F1.0
asI70
(lp2303
F0.008928571428571428
asI71
(lp2304
F0.017857142857142856
asI72
(lp2305
F0.9910714285714286
asI73
(lp2306
F0.9821428571428571
asI74
(lp2307
F0.9910714285714286
asI75
(lp2308
F0.9553571428571429
asI76
(lp2309
F0.017857142857142856
asI77
(lp2310
F0.9732142857142857
asI78
(lp2311
F0.017857142857142856
asI79
(lp2312
F0.017857142857142856
asI80
(lp2313
F0.008928571428571428
asI81
(lp2314
F0.026785714285714284
asI82
(lp2315
F0.008928571428571428
asI83
(lp2316
F0.017857142857142856
asI84
(lp2317
F0.008928571428571428
asI85
(lp2318
F0.008928571428571428
asI86
(lp2319
F0.9910714285714286
asI87
(lp2320
F0.008928571428571428
asI88
(lp2321
F0.026785714285714284
asI89
(lp2322
F0.008928571428571428
asI90
(lp2323
F0.008928571428571428
asI91
(lp2324
F0.008928571428571428
asI92
(lp2325
F0.008928571428571428
asI93
(lp2326
F0.008928571428571428
asI94
(lp2327
F0.9821428571428571
asI95
(lp2328
F0.008928571428571428
asI96
(lp2329
F0.008928571428571428
asI97
(lp2330
F0.008928571428571428
asI98
(lp2331
F0.008928571428571428
asI99
(lp2332
F0.008928571428571428
asI100
(lp2333
F0.008928571428571428
asI101
(lp2334
F0.008928571428571428
asI102
(lp2335
F0.008928571428571428
asI103
(lp2336
F0.008928571428571428
asI104
(lp2337
F0.008928571428571428
asI105
(lp2338
F0.008928571428571428
asI106
(lp2339
F0.008928571428571428
asI107
(lp2340
F0.008928571428571428
asI108
(lp2341
F0.008928571428571428
asI109
(lp2342
F0.008928571428571428
asI110
(lp2343
F0.008928571428571428
asI111
(lp2344
F0.008928571428571428
asI112
(lp2345
F0.008928571428571428
asI113
(lp2346
F0.0
assg1076
g13
(g14
tp2347
Rp2348
I1
(lp2349
F1.0
asI2
(lp2350
F1.0
asI3
(lp2351
F1.0
asI4
(lp2352
F1.0
asI5
(lp2353
F1.0
asI6
(lp2354
F1.0
asI7
(lp2355
F1.0
asI8
(lp2356
F1.0
asI9
(lp2357
F1.0
asI10
(lp2358
F1.0
asI11
(lp2359
F1.0
asI12
(lp2360
F1.0
asI13
(lp2361
F1.0
asI14
(lp2362
F1.0
asI15
(lp2363
F1.0
asI16
(lp2364
F1.0
asI17
(lp2365
F1.0
asI18
(lp2366
F1.0
asI19
(lp2367
F1.0
asI20
(lp2368
F1.0
asI21
(lp2369
F1.0
asI22
(lp2370
F1.0
asI23
(lp2371
F1.0
asI24
(lp2372
F1.0
asI25
(lp2373
F1.0
asI26
(lp2374
F1.0
asI27
(lp2375
F1.0
asI28
(lp2376
F1.0
asI29
(lp2377
F1.0
asI30
(lp2378
F1.0
asI31
(lp2379
F1.0
asI32
(lp2380
F1.0
asI33
(lp2381
F1.0
asI34
(lp2382
F1.0
asI35
(lp2383
F1.0
asI36
(lp2384
F1.0
asI37
(lp2385
F1.0
asI38
(lp2386
F1.0
asI39
(lp2387
F1.0
asI40
(lp2388
F1.0
asI41
(lp2389
F1.0
asI42
(lp2390
F1.0
asI43
(lp2391
F1.0
asI44
(lp2392
F1.0
asI45
(lp2393
F1.0
asI46
(lp2394
F1.0
asI47
(lp2395
F1.0
asI48
(lp2396
F1.0
asI49
(lp2397
F1.0
asI50
(lp2398
F1.0
asI51
(lp2399
F1.0
asI52
(lp2400
F1.0
asI53
(lp2401
F1.0
asI54
(lp2402
F1.0
asI55
(lp2403
F1.0
asI56
(lp2404
F1.0
asI57
(lp2405
F1.0
asI58
(lp2406
F1.0
asI59
(lp2407
F1.0
asI60
(lp2408
F1.0
asI61
(lp2409
F1.0
asI62
(lp2410
F1.0
asI63
(lp2411
F1.0
asI64
(lp2412
F1.0
asI65
(lp2413
F1.0
asI66
(lp2414
F1.0
asI67
(lp2415
F1.0
asI68
(lp2416
F1.0
asI69
(lp2417
F1.0
asI70
(lp2418
F1.0
asI71
(lp2419
F1.0
asI72
(lp2420
F1.0
asI73
(lp2421
F1.0
asI74
(lp2422
F1.0
asI75
(lp2423
F1.0
asI76
(lp2424
F1.0
asI77
(lp2425
F1.0
asI78
(lp2426
F1.0
asI79
(lp2427
F1.0
asI80
(lp2428
F1.0
asI81
(lp2429
F1.0
asI82
(lp2430
F1.0
asI83
(lp2431
F1.0
asI84
(lp2432
F1.0
asI85
(lp2433
F1.0
asI86
(lp2434
F1.0
asI87
(lp2435
F1.0
asI88
(lp2436
F1.0
asI89
(lp2437
F1.0
asI90
(lp2438
F0.008928571428571428
asI91
(lp2439
F0.008928571428571428
asI92
(lp2440
F0.017857142857142856
asI93
(lp2441
F1.0
asI94
(lp2442
F1.0
asI95
(lp2443
F0.008928571428571428
asI96
(lp2444
F0.008928571428571428
asI97
(lp2445
F1.0
asI98
(lp2446
F0.017857142857142856
asI99
(lp2447
F0.008928571428571428
asI100
(lp2448
F0.008928571428571428
asI101
(lp2449
F0.008928571428571428
asI102
(lp2450
F0.008928571428571428
asI103
(lp2451
F0.008928571428571428
asI104
(lp2452
F0.008928571428571428
asI105
(lp2453
F0.008928571428571428
asI106
(lp2454
F1.0
asI107
(lp2455
F0.008928571428571428
asI108
(lp2456
F0.008928571428571428
asI109
(lp2457
F0.017857142857142856
asI110
(lp2458
F0.008928571428571428
asI111
(lp2459
F0.008928571428571428
asI112
(lp2460
F0.008928571428571428
asI113
(lp2461
F0.0
assg1194
g13
(g14
tp2462
Rp2463
I1
(lp2464
F1.0
asI2
(lp2465
F1.0
asI3
(lp2466
F1.0
asI4
(lp2467
F1.0
asI5
(lp2468
F1.0
asI6
(lp2469
F1.0
asI7
(lp2470
F1.0
asI8
(lp2471
F1.0
asI9
(lp2472
F1.0
asI10
(lp2473
F1.0
asI11
(lp2474
F1.0
asI12
(lp2475
F1.0
asI13
(lp2476
F1.0
asI14
(lp2477
F1.0
asI15
(lp2478
F1.0
asI16
(lp2479
F1.0
asI17
(lp2480
F1.0
asI18
(lp2481
F1.0
asI19
(lp2482
F1.0
asI20
(lp2483
F1.0
asI21
(lp2484
F1.0
asI22
(lp2485
F1.0
asI23
(lp2486
F1.0
asI24
(lp2487
F1.0
asI25
(lp2488
F1.0
asI26
(lp2489
F1.0
asI27
(lp2490
F1.0
asI28
(lp2491
F1.0
asI29
(lp2492
F1.0
asI30
(lp2493
F1.0
asI31
(lp2494
F1.0
asI32
(lp2495
F1.0
asI33
(lp2496
F1.0
asI34
(lp2497
F1.0
asI35
(lp2498
F1.0
asI36
(lp2499
F1.0
asI37
(lp2500
F1.0
asI38
(lp2501
F1.0
asI39
(lp2502
F1.0
asI40
(lp2503
F1.0
asI41
(lp2504
F1.0
asI42
(lp2505
F1.0
asI43
(lp2506
F1.0
asI44
(lp2507
F1.0
asI45
(lp2508
F1.0
asI46
(lp2509
F1.0
asI47
(lp2510
F1.0
asI48
(lp2511
F1.0
asI49
(lp2512
F1.0
asI50
(lp2513
F1.0
asI51
(lp2514
F1.0
asI52
(lp2515
F1.0
asI53
(lp2516
F1.0
asI54
(lp2517
F1.0
asI55
(lp2518
F1.0
asI56
(lp2519
F1.0
asI57
(lp2520
F1.0
asI58
(lp2521
F1.0
asI59
(lp2522
F1.0
asI60
(lp2523
F1.0
asI61
(lp2524
F1.0
asI62
(lp2525
F1.0
asI63
(lp2526
F1.0
asI64
(lp2527
F1.0
asI65
(lp2528
F1.0
asI66
(lp2529
F1.0
asI67
(lp2530
F1.0
asI68
(lp2531
F1.0
asI69
(lp2532
F1.0
asI70
(lp2533
F1.0
asI71
(lp2534
F1.0
asI72
(lp2535
F1.0
asI73
(lp2536
F1.0
asI74
(lp2537
F1.0
asI75
(lp2538
F1.0
asI76
(lp2539
F0.0625
asI77
(lp2540
F1.0
asI78
(lp2541
F1.0
asI79
(lp2542
F1.0
asI80
(lp2543
F1.0
asI81
(lp2544
F1.0
asI82
(lp2545
F1.0
asI83
(lp2546
F1.0
asI84
(lp2547
F1.0
asI85
(lp2548
F1.0
asI86
(lp2549
F1.0
asI87
(lp2550
F1.0
asI88
(lp2551
F1.0
asI89
(lp2552
F1.0
asI90
(lp2553
F0.008928571428571428
asI91
(lp2554
F0.008928571428571428
asI92
(lp2555
F0.008928571428571428
asI93
(lp2556
F0.017857142857142856
asI94
(lp2557
F1.0
asI95
(lp2558
F0.008928571428571428
asI96
(lp2559
F0.008928571428571428
asI97
(lp2560
F1.0
asI98
(lp2561
F0.008928571428571428
asI99
(lp2562
F1.0
asI100
(lp2563
F0.008928571428571428
asI101
(lp2564
F0.008928571428571428
asI102
(lp2565
F0.008928571428571428
asI103
(lp2566
F0.008928571428571428
asI104
(lp2567
F0.008928571428571428
asI105
(lp2568
F0.008928571428571428
asI106
(lp2569
F1.0
asI107
(lp2570
F0.008928571428571428
asI108
(lp2571
F0.008928571428571428
asI109
(lp2572
F0.017857142857142856
asI110
(lp2573
F0.008928571428571428
asI111
(lp2574
F0.008928571428571428
asI112
(lp2575
F0.008928571428571428
asI113
(lp2576
F0.0
asss.