(dp0
S'length'
p1
(dp2
cnumpy.core.multiarray
scalar
p3
(cnumpy
dtype
p4
(S'f8'
p5
I0
I1
tp6
Rp7
(I3
S'<'
p8
NNNI-1
I-1
I0
tp9
bS'\x00\x00\x00\x00\x00\x00\x00\x00'
p10
tp11
Rp12
ccollections
defaultdict
p13
(c__builtin__
list
p14
tp15
Rp16
I1
(lp17
I1
asI2
(lp18
I1
asI3
(lp19
I1
asI4
(lp20
I1
asI5
(lp21
I1
asI6
(lp22
I1
asI7
(lp23
I1
asI8
(lp24
I1
asI9
(lp25
I1
asI10
(lp26
I1
asI11
(lp27
I1
asI12
(lp28
I1
asI13
(lp29
I1
asI14
(lp30
I1
asI15
(lp31
I1
asI16
(lp32
I1
asI17
(lp33
I1
asI18
(lp34
I1
asI19
(lp35
I1
asI20
(lp36
I1
asI21
(lp37
I1
asI22
(lp38
I1
asI23
(lp39
I1
asI24
(lp40
I1
asI25
(lp41
I1
asI26
(lp42
I1
asI27
(lp43
I1
asI28
(lp44
I1
asI29
(lp45
I1
asI30
(lp46
I1
asI31
(lp47
I1
asI32
(lp48
I1
asI33
(lp49
I1
asI34
(lp50
I1
asI35
(lp51
I1
asI36
(lp52
I1
asI37
(lp53
I1
asI38
(lp54
I1
asI39
(lp55
I1
asI40
(lp56
I1
asI41
(lp57
I1
asI42
(lp58
I1
asI43
(lp59
I1
asI44
(lp60
I1
asI45
(lp61
I1
asI46
(lp62
I1
asI47
(lp63
I1
asI48
(lp64
I1
asI49
(lp65
I1
asI50
(lp66
I1
asI51
(lp67
I1
asI52
(lp68
I1
asI53
(lp69
I1
asI54
(lp70
I1
asI55
(lp71
I1
asI56
(lp72
I1
asI57
(lp73
I1
asI58
(lp74
I1
asI59
(lp75
I1
asI60
(lp76
I1
asI61
(lp77
I1
asI62
(lp78
I1
asI63
(lp79
I1
asI64
(lp80
I1
asI65
(lp81
I1
asI66
(lp82
I1
asI67
(lp83
I1
asI68
(lp84
I1
asI69
(lp85
I1
asI70
(lp86
I1
asI71
(lp87
I1
asI72
(lp88
I1
asI73
(lp89
I1
asI74
(lp90
I1
asI75
(lp91
I1
asI76
(lp92
I1
asI77
(lp93
I1
asI78
(lp94
I1
asI79
(lp95
I1
asI80
(lp96
I1
asI81
(lp97
I1
asI82
(lp98
I1
asI83
(lp99
I1
asI84
(lp100
I1
asI85
(lp101
I1
asI86
(lp102
I1
asI87
(lp103
I1
asI88
(lp104
I1
asI89
(lp105
I1
asI90
(lp106
I1
asI91
(lp107
I1
asI92
(lp108
I1
asI93
(lp109
I1
asI94
(lp110
I1
asI95
(lp111
I1
asI96
(lp112
I1
asI97
(lp113
I1
asI98
(lp114
I1
asI99
(lp115
I1
asI100
(lp116
I1
asI101
(lp117
I1
asI102
(lp118
I1
asI103
(lp119
I1
asI104
(lp120
I1
asI105
(lp121
I1
asI106
(lp122
I1
asI107
(lp123
I1
asI108
(lp124
I1
asI109
(lp125
I1
asI110
(lp126
I1
asI111
(lp127
I1
asI112
(lp128
I1
asI113
(lp129
I1
asI114
(lp130
I1
asI115
(lp131
I1
asI116
(lp132
I1
asI117
(lp133
I1
asI118
(lp134
I1
asI119
(lp135
I1
asI120
(lp136
I1
asI121
(lp137
I1
asI122
(lp138
I1
asI123
(lp139
I1
asI124
(lp140
I1
asI125
(lp141
I1
asI126
(lp142
I1
asI127
(lp143
I1
asI128
(lp144
I1
asI129
(lp145
I1
asI130
(lp146
I1
asI131
(lp147
I1
asI132
(lp148
I1
asI133
(lp149
I1
asI134
(lp150
I1
asI135
(lp151
I1
asI136
(lp152
I1
asI137
(lp153
I1
asI138
(lp154
I1
asI139
(lp155
I1
asI140
(lp156
I1
asI141
(lp157
I1
asI142
(lp158
I1
asI143
(lp159
I1
asI144
(lp160
I1
asI145
(lp161
I1
asI146
(lp162
I1
asI147
(lp163
I1
asI148
(lp164
I1
asI149
(lp165
I1
asI150
(lp166
I1
asI151
(lp167
I1
asI152
(lp168
I1
asI153
(lp169
I1
asI154
(lp170
I1
asI155
(lp171
I1
asI156
(lp172
I1
asI157
(lp173
I1
asI158
(lp174
I1
asI159
(lp175
I1
asI160
(lp176
I1
asI161
(lp177
I1
asI162
(lp178
I1
asI163
(lp179
I1
asI164
(lp180
I1
asI165
(lp181
I1
asI166
(lp182
I1
asI167
(lp183
I1
asI168
(lp184
I1
asI169
(lp185
I1
asI170
(lp186
I1
asI171
(lp187
I1
asI172
(lp188
I1
asI173
(lp189
I1
asI174
(lp190
I1
asI175
(lp191
I1
asI176
(lp192
I1
asI177
(lp193
I1
asI178
(lp194
I1
asI179
(lp195
I1
asI180
(lp196
I1
asI181
(lp197
I1
asI182
(lp198
I1
asI183
(lp199
I1
asI184
(lp200
I1
asI185
(lp201
I1
asI186
(lp202
I1
asI187
(lp203
I1
asI188
(lp204
I1
asI189
(lp205
I1
asI190
(lp206
I1
asI191
(lp207
I1
asI192
(lp208
I1
asI193
(lp209
I1
asI194
(lp210
I1
asI195
(lp211
I1
asI196
(lp212
I1
asI197
(lp213
I1
asI198
(lp214
I1
asI199
(lp215
I1
asI200
(lp216
I1
asI201
(lp217
I1
asI202
(lp218
I1
asI203
(lp219
I1
asI204
(lp220
I1
asI205
(lp221
I1
asI206
(lp222
I1
assg3
(g7
S'\x00\x00\x00\x00\x00\x00\xe0?'
p223
tp224
Rp225
g13
(g14
tp226
Rp227
I1
(lp228
I4
asI2
(lp229
I4
asI3
(lp230
I4
asI4
(lp231
I4
asI5
(lp232
I4
asI6
(lp233
I4
asI7
(lp234
I4
asI8
(lp235
I4
asI9
(lp236
I5
asI10
(lp237
I4
asI11
(lp238
I5
asI12
(lp239
I4
asI13
(lp240
I4
asI14
(lp241
I4
asI15
(lp242
I5
asI16
(lp243
I5
asI17
(lp244
I5
asI18
(lp245
I4
asI19
(lp246
I5
asI20
(lp247
I5
asI21
(lp248
I5
asI22
(lp249
I4
asI23
(lp250
I5
asI24
(lp251
I5
asI25
(lp252
I4
asI26
(lp253
I5
asI27
(lp254
I5
asI28
(lp255
I4
asI29
(lp256
I5
asI30
(lp257
I5
asI31
(lp258
I4
asI32
(lp259
I5
asI33
(lp260
I5
asI34
(lp261
I6
asI35
(lp262
I4
asI36
(lp263
I5
asI37
(lp264
I5
asI38
(lp265
I5
asI39
(lp266
I6
asI40
(lp267
I5
asI41
(lp268
I5
asI42
(lp269
I6
asI43
(lp270
I6
asI44
(lp271
I5
asI45
(lp272
I6
asI46
(lp273
I5
asI47
(lp274
I7
asI48
(lp275
I5
asI49
(lp276
I5
asI50
(lp277
I5
asI51
(lp278
I5
asI52
(lp279
I5
asI53
(lp280
I6
asI54
(lp281
I6
asI55
(lp282
I5
asI56
(lp283
I5
asI57
(lp284
I5
asI58
(lp285
I12
asI59
(lp286
I6
asI60
(lp287
I6
asI61
(lp288
I6
asI62
(lp289
I6
asI63
(lp290
I6
asI64
(lp291
I7
asI65
(lp292
I6
asI66
(lp293
I7
asI67
(lp294
I6
asI68
(lp295
I7
asI69
(lp296
I5
asI70
(lp297
I5
asI71
(lp298
I6
asI72
(lp299
I6
asI73
(lp300
I6
asI74
(lp301
I6
asI75
(lp302
I6
asI76
(lp303
I5
asI77
(lp304
I7
asI78
(lp305
I8
asI79
(lp306
I1
asI80
(lp307
I6
asI81
(lp308
I4
asI82
(lp309
I6
asI83
(lp310
I5
asI84
(lp311
I6
asI85
(lp312
I7
asI86
(lp313
I6
asI87
(lp314
I9
asI88
(lp315
I7
asI89
(lp316
I6
asI90
(lp317
I7
asI91
(lp318
I7
asI92
(lp319
I7
asI93
(lp320
I8
asI94
(lp321
I8
asI95
(lp322
I6
asI96
(lp323
I6
asI97
(lp324
I6
asI98
(lp325
I7
asI99
(lp326
I8
asI100
(lp327
I9
asI101
(lp328
I7
asI102
(lp329
I7
asI103
(lp330
I6
asI104
(lp331
I5
asI105
(lp332
I2
asI106
(lp333
I8
asI107
(lp334
I1
asI108
(lp335
I1
asI109
(lp336
I6
asI110
(lp337
I2
asI111
(lp338
I5
asI112
(lp339
I8
asI113
(lp340
I4
asI114
(lp341
I8
asI115
(lp342
I8
asI116
(lp343
I4
asI117
(lp344
I7
asI118
(lp345
I8
asI119
(lp346
I11
asI120
(lp347
I8
asI121
(lp348
I1
asI122
(lp349
I1
asI123
(lp350
I8
asI124
(lp351
I5
asI125
(lp352
I8
asI126
(lp353
I6
asI127
(lp354
I7
asI128
(lp355
I5
asI129
(lp356
I9
asI130
(lp357
I3
asI131
(lp358
I7
asI132
(lp359
I7
asI133
(lp360
I3
asI134
(lp361
I2
asI135
(lp362
I1
asI136
(lp363
I2
asI137
(lp364
I4
asI138
(lp365
I1
asI139
(lp366
I8
asI140
(lp367
I7
asI141
(lp368
I3
asI142
(lp369
I9
asI143
(lp370
I8
asI144
(lp371
I1
asI145
(lp372
I8
asI146
(lp373
I3
asI147
(lp374
I4
asI148
(lp375
I1
asI149
(lp376
I1
asI150
(lp377
I2
asI151
(lp378
I9
asI152
(lp379
I6
asI153
(lp380
I7
asI154
(lp381
I1
asI155
(lp382
I3
asI156
(lp383
I7
asI157
(lp384
I1
asI158
(lp385
I1
asI159
(lp386
I1
asI160
(lp387
I6
asI161
(lp388
I1
asI162
(lp389
I9
asI163
(lp390
I6
asI164
(lp391
I8
asI165
(lp392
I1
asI166
(lp393
I6
asI167
(lp394
I1
asI168
(lp395
I1
asI169
(lp396
I1
asI170
(lp397
I2
asI171
(lp398
I3
asI172
(lp399
I7
asI173
(lp400
I1
asI174
(lp401
I1
asI175
(lp402
I1
asI176
(lp403
I1
asI177
(lp404
I1
asI178
(lp405
I8
asI179
(lp406
I1
asI180
(lp407
I1
asI181
(lp408
I1
asI182
(lp409
I1
asI183
(lp410
I1
asI184
(lp411
I1
asI185
(lp412
I1
asI186
(lp413
I1
asI187
(lp414
I1
asI188
(lp415
I1
asI189
(lp416
I1
asI190
(lp417
I8
asI191
(lp418
I2
asI192
(lp419
I2
asI193
(lp420
I1
asI194
(lp421
I1
asI195
(lp422
I1
asI196
(lp423
I1
asI197
(lp424
I1
asI198
(lp425
I1
asI199
(lp426
I1
asI200
(lp427
I1
asI201
(lp428
I1
asI202
(lp429
I1
asI203
(lp430
I1
asI204
(lp431
I1
asI205
(lp432
I1
asI206
(lp433
I1
assg3
(g7
S'\x9a\x99\x99\x99\x99\x99\xc9?'
p434
tp435
Rp436
g13
(g14
tp437
Rp438
I1
(lp439
I6
asI2
(lp440
I5
asI3
(lp441
I5
asI4
(lp442
I5
asI5
(lp443
I6
asI6
(lp444
I5
asI7
(lp445
I5
asI8
(lp446
I6
asI9
(lp447
I7
asI10
(lp448
I6
asI11
(lp449
I6
asI12
(lp450
I7
asI13
(lp451
I8
asI14
(lp452
I7
asI15
(lp453
I5
asI16
(lp454
I8
asI17
(lp455
I6
asI18
(lp456
I6
asI19
(lp457
I6
asI20
(lp458
I7
asI21
(lp459
I6
asI22
(lp460
I6
asI23
(lp461
I7
asI24
(lp462
I7
asI25
(lp463
I6
asI26
(lp464
I6
asI27
(lp465
I7
asI28
(lp466
I5
asI29
(lp467
I8
asI30
(lp468
I7
asI31
(lp469
I9
asI32
(lp470
I7
asI33
(lp471
I8
asI34
(lp472
I7
asI35
(lp473
I6
asI36
(lp474
I6
asI37
(lp475
I7
asI38
(lp476
I7
asI39
(lp477
I8
asI40
(lp478
I7
asI41
(lp479
I7
asI42
(lp480
I10
asI43
(lp481
I8
asI44
(lp482
I6
asI45
(lp483
I2
asI46
(lp484
I13
asI47
(lp485
I7
asI48
(lp486
I10
asI49
(lp487
I5
asI50
(lp488
I7
asI51
(lp489
I7
asI52
(lp490
I8
asI53
(lp491
I1
asI54
(lp492
I2
asI55
(lp493
I6
asI56
(lp494
I4
asI57
(lp495
I7
asI58
(lp496
I13
asI59
(lp497
I11
asI60
(lp498
I3
asI61
(lp499
I6
asI62
(lp500
I8
asI63
(lp501
I2
asI64
(lp502
I1
asI65
(lp503
I3
asI66
(lp504
I9
asI67
(lp505
I9
asI68
(lp506
I12
asI69
(lp507
I1
asI70
(lp508
I2
asI71
(lp509
I10
asI72
(lp510
I9
asI73
(lp511
I8
asI74
(lp512
I8
asI75
(lp513
I4
asI76
(lp514
I2
asI77
(lp515
I2
asI78
(lp516
I1
asI79
(lp517
I2
asI80
(lp518
I3
asI81
(lp519
I2
asI82
(lp520
I2
asI83
(lp521
I6
asI84
(lp522
I1
asI85
(lp523
I6
asI86
(lp524
I10
asI87
(lp525
I4
asI88
(lp526
I5
asI89
(lp527
I1
asI90
(lp528
I3
asI91
(lp529
I10
asI92
(lp530
I2
asI93
(lp531
I2
asI94
(lp532
I2
asI95
(lp533
I9
asI96
(lp534
I8
asI97
(lp535
I1
asI98
(lp536
I2
asI99
(lp537
I8
asI100
(lp538
I2
asI101
(lp539
I1
asI102
(lp540
I8
asI103
(lp541
I2
asI104
(lp542
I2
asI105
(lp543
I13
asI106
(lp544
I3
asI107
(lp545
I6
asI108
(lp546
I1
asI109
(lp547
I9
asI110
(lp548
I1
asI111
(lp549
I7
asI112
(lp550
I3
asI113
(lp551
I1
asI114
(lp552
I2
asI115
(lp553
I1
asI116
(lp554
I1
asI117
(lp555
I8
asI118
(lp556
I3
asI119
(lp557
I1
asI120
(lp558
I1
asI121
(lp559
I1
asI122
(lp560
I1
asI123
(lp561
I2
asI124
(lp562
I1
asI125
(lp563
I1
asI126
(lp564
I11
asI127
(lp565
I2
asI128
(lp566
I10
asI129
(lp567
I1
asI130
(lp568
I9
asI131
(lp569
I1
asI132
(lp570
I3
asI133
(lp571
I1
asI134
(lp572
I1
asI135
(lp573
I1
asI136
(lp574
I2
asI137
(lp575
I2
asI138
(lp576
I1
asI139
(lp577
I10
asI140
(lp578
I3
asI141
(lp579
I10
asI142
(lp580
I2
asI143
(lp581
I1
asI144
(lp582
I1
asI145
(lp583
I2
asI146
(lp584
I2
asI147
(lp585
I1
asI148
(lp586
I1
asI149
(lp587
I1
asI150
(lp588
I2
asI151
(lp589
I1
asI152
(lp590
I1
asI153
(lp591
I2
asI154
(lp592
I1
asI155
(lp593
I3
asI156
(lp594
I1
asI157
(lp595
I1
asI158
(lp596
I1
asI159
(lp597
I1
asI160
(lp598
I2
asI161
(lp599
I1
asI162
(lp600
I4
asI163
(lp601
I2
asI164
(lp602
I1
asI165
(lp603
I1
asI166
(lp604
I1
asI167
(lp605
I5
asI168
(lp606
I1
asI169
(lp607
I1
asI170
(lp608
I1
asI171
(lp609
I1
asI172
(lp610
I1
asI173
(lp611
I1
asI174
(lp612
I1
asI175
(lp613
I1
asI176
(lp614
I2
asI177
(lp615
I1
asI178
(lp616
I2
asI179
(lp617
I1
asI180
(lp618
I1
asI181
(lp619
I1
asI182
(lp620
I1
asI183
(lp621
I1
asI184
(lp622
I1
asI185
(lp623
I1
asI186
(lp624
I1
asI187
(lp625
I2
asI188
(lp626
I4
asI189
(lp627
I1
asI190
(lp628
I1
asI191
(lp629
I1
asI192
(lp630
I1
asI193
(lp631
I1
asI194
(lp632
I1
asI195
(lp633
I1
asI196
(lp634
I1
asI197
(lp635
I1
asI198
(lp636
I1
asI199
(lp637
I1
asI200
(lp638
I1
asI201
(lp639
I1
asI202
(lp640
I1
asI203
(lp641
I1
asI204
(lp642
I1
asI205
(lp643
I1
asI206
(lp644
I1
assg3
(g7
S'\x9a\x99\x99\x99\x99\x99\xd9?'
p645
tp646
Rp647
g13
(g14
tp648
Rp649
I1
(lp650
I4
asI2
(lp651
I4
asI3
(lp652
I4
asI4
(lp653
I5
asI5
(lp654
I5
asI6
(lp655
I4
asI7
(lp656
I4
asI8
(lp657
I5
asI9
(lp658
I5
asI10
(lp659
I4
asI11
(lp660
I5
asI12
(lp661
I5
asI13
(lp662
I5
asI14
(lp663
I5
asI15
(lp664
I5
asI16
(lp665
I5
asI17
(lp666
I6
asI18
(lp667
I5
asI19
(lp668
I5
asI20
(lp669
I5
asI21
(lp670
I5
asI22
(lp671
I5
asI23
(lp672
I5
asI24
(lp673
I6
asI25
(lp674
I5
asI26
(lp675
I5
asI27
(lp676
I5
asI28
(lp677
I5
asI29
(lp678
I5
asI30
(lp679
I6
asI31
(lp680
I5
asI32
(lp681
I5
asI33
(lp682
I6
asI34
(lp683
I5
asI35
(lp684
I5
asI36
(lp685
I5
asI37
(lp686
I5
asI38
(lp687
I5
asI39
(lp688
I6
asI40
(lp689
I5
asI41
(lp690
I5
asI42
(lp691
I6
asI43
(lp692
I5
asI44
(lp693
I5
asI45
(lp694
I5
asI46
(lp695
I5
asI47
(lp696
I7
asI48
(lp697
I5
asI49
(lp698
I5
asI50
(lp699
I5
asI51
(lp700
I5
asI52
(lp701
I6
asI53
(lp702
I6
asI54
(lp703
I6
asI55
(lp704
I5
asI56
(lp705
I5
asI57
(lp706
I6
asI58
(lp707
I7
asI59
(lp708
I6
asI60
(lp709
I7
asI61
(lp710
I10
asI62
(lp711
I8
asI63
(lp712
I7
asI64
(lp713
I8
asI65
(lp714
I8
asI66
(lp715
I7
asI67
(lp716
I6
asI68
(lp717
I7
asI69
(lp718
I2
asI70
(lp719
I5
asI71
(lp720
I9
asI72
(lp721
I7
asI73
(lp722
I9
asI74
(lp723
I6
asI75
(lp724
I6
asI76
(lp725
I6
asI77
(lp726
I7
asI78
(lp727
I2
asI79
(lp728
I1
asI80
(lp729
I5
asI81
(lp730
I7
asI82
(lp731
I2
asI83
(lp732
I5
asI84
(lp733
I7
asI85
(lp734
I9
asI86
(lp735
I8
asI87
(lp736
I11
asI88
(lp737
I7
asI89
(lp738
I6
asI90
(lp739
I2
asI91
(lp740
I6
asI92
(lp741
I8
asI93
(lp742
I6
asI94
(lp743
I10
asI95
(lp744
I8
asI96
(lp745
I1
asI97
(lp746
I5
asI98
(lp747
I9
asI99
(lp748
I7
asI100
(lp749
I2
asI101
(lp750
I1
asI102
(lp751
I7
asI103
(lp752
I9
asI104
(lp753
I9
asI105
(lp754
I9
asI106
(lp755
I8
asI107
(lp756
I8
asI108
(lp757
I1
asI109
(lp758
I8
asI110
(lp759
I9
asI111
(lp760
I6
asI112
(lp761
I6
asI113
(lp762
I2
asI114
(lp763
I2
asI115
(lp764
I2
asI116
(lp765
I3
asI117
(lp766
I1
asI118
(lp767
I7
asI119
(lp768
I7
asI120
(lp769
I6
asI121
(lp770
I2
asI122
(lp771
I1
asI123
(lp772
I8
asI124
(lp773
I2
asI125
(lp774
I2
asI126
(lp775
I6
asI127
(lp776
I7
asI128
(lp777
I5
asI129
(lp778
I11
asI130
(lp779
I5
asI131
(lp780
I1
asI132
(lp781
I1
asI133
(lp782
I8
asI134
(lp783
I3
asI135
(lp784
I1
asI136
(lp785
I6
asI137
(lp786
I2
asI138
(lp787
I1
asI139
(lp788
I3
asI140
(lp789
I7
asI141
(lp790
I2
asI142
(lp791
I7
asI143
(lp792
I1
asI144
(lp793
I1
asI145
(lp794
I4
asI146
(lp795
I2
asI147
(lp796
I6
asI148
(lp797
I3
asI149
(lp798
I1
asI150
(lp799
I1
asI151
(lp800
I1
asI152
(lp801
I1
asI153
(lp802
I10
asI154
(lp803
I1
asI155
(lp804
I2
asI156
(lp805
I8
asI157
(lp806
I1
asI158
(lp807
I1
asI159
(lp808
I1
asI160
(lp809
I8
asI161
(lp810
I1
asI162
(lp811
I1
asI163
(lp812
I2
asI164
(lp813
I2
asI165
(lp814
I1
asI166
(lp815
I2
asI167
(lp816
I8
asI168
(lp817
I1
asI169
(lp818
I1
asI170
(lp819
I2
asI171
(lp820
I1
asI172
(lp821
I1
asI173
(lp822
I1
asI174
(lp823
I1
asI175
(lp824
I1
asI176
(lp825
I1
asI177
(lp826
I9
asI178
(lp827
I2
asI179
(lp828
I1
asI180
(lp829
I1
asI181
(lp830
I1
asI182
(lp831
I1
asI183
(lp832
I1
asI184
(lp833
I1
asI185
(lp834
I1
asI186
(lp835
I1
asI187
(lp836
I1
asI188
(lp837
I9
asI189
(lp838
I1
asI190
(lp839
I2
asI191
(lp840
I2
asI192
(lp841
I1
asI193
(lp842
I1
asI194
(lp843
I1
asI195
(lp844
I1
asI196
(lp845
I1
asI197
(lp846
I1
asI198
(lp847
I1
asI199
(lp848
I1
asI200
(lp849
I1
asI201
(lp850
I1
asI202
(lp851
I1
asI203
(lp852
I1
asI204
(lp853
I1
asI205
(lp854
I1
asI206
(lp855
I1
assg3
(g7
S'\x00\x00\x00\x00\x00\x00\xf0?'
p856
tp857
Rp858
g13
(g14
tp859
Rp860
I1
(lp861
I4
asI2
(lp862
I3
asI3
(lp863
I3
asI4
(lp864
I4
asI5
(lp865
I4
asI6
(lp866
I3
asI7
(lp867
I3
asI8
(lp868
I4
asI9
(lp869
I4
asI10
(lp870
I4
asI11
(lp871
I4
asI12
(lp872
I4
asI13
(lp873
I4
asI14
(lp874
I4
asI15
(lp875
I4
asI16
(lp876
I4
asI17
(lp877
I4
asI18
(lp878
I4
asI19
(lp879
I4
asI20
(lp880
I4
asI21
(lp881
I4
asI22
(lp882
I4
asI23
(lp883
I4
asI24
(lp884
I4
asI25
(lp885
I4
asI26
(lp886
I4
asI27
(lp887
I4
asI28
(lp888
I4
asI29
(lp889
I4
asI30
(lp890
I4
asI31
(lp891
I4
asI32
(lp892
I4
asI33
(lp893
I4
asI34
(lp894
I4
asI35
(lp895
I4
asI36
(lp896
I4
asI37
(lp897
I4
asI38
(lp898
I4
asI39
(lp899
I4
asI40
(lp900
I4
asI41
(lp901
I4
asI42
(lp902
I4
asI43
(lp903
I4
asI44
(lp904
I4
asI45
(lp905
I5
asI46
(lp906
I4
asI47
(lp907
I5
asI48
(lp908
I4
asI49
(lp909
I4
asI50
(lp910
I4
asI51
(lp911
I4
asI52
(lp912
I5
asI53
(lp913
I5
asI54
(lp914
I4
asI55
(lp915
I4
asI56
(lp916
I4
asI57
(lp917
I5
asI58
(lp918
I6
asI59
(lp919
I5
asI60
(lp920
I5
asI61
(lp921
I5
asI62
(lp922
I5
asI63
(lp923
I5
asI64
(lp924
I5
asI65
(lp925
I5
asI66
(lp926
I5
asI67
(lp927
I5
asI68
(lp928
I6
asI69
(lp929
I4
asI70
(lp930
I5
asI71
(lp931
I5
asI72
(lp932
I5
asI73
(lp933
I5
asI74
(lp934
I5
asI75
(lp935
I5
asI76
(lp936
I4
asI77
(lp937
I5
asI78
(lp938
I6
asI79
(lp939
I6
asI80
(lp940
I5
asI81
(lp941
I5
asI82
(lp942
I5
asI83
(lp943
I4
asI84
(lp944
I5
asI85
(lp945
I5
asI86
(lp946
I5
asI87
(lp947
I6
asI88
(lp948
I4
asI89
(lp949
I5
asI90
(lp950
I5
asI91
(lp951
I5
asI92
(lp952
I5
asI93
(lp953
I5
asI94
(lp954
I6
asI95
(lp955
I5
asI96
(lp956
I5
asI97
(lp957
I5
asI98
(lp958
I6
asI99
(lp959
I6
asI100
(lp960
I8
asI101
(lp961
I6
asI102
(lp962
I5
asI103
(lp963
I5
asI104
(lp964
I6
asI105
(lp965
I5
asI106
(lp966
I5
asI107
(lp967
I6
asI108
(lp968
I6
asI109
(lp969
I5
asI110
(lp970
I6
asI111
(lp971
I5
asI112
(lp972
I5
asI113
(lp973
I6
asI114
(lp974
I7
asI115
(lp975
I7
asI116
(lp976
I7
asI117
(lp977
I6
asI118
(lp978
I5
asI119
(lp979
I5
asI120
(lp980
I5
asI121
(lp981
I2
asI122
(lp982
I1
asI123
(lp983
I6
asI124
(lp984
I5
asI125
(lp985
I6
asI126
(lp986
I5
asI127
(lp987
I6
asI128
(lp988
I4
asI129
(lp989
I6
asI130
(lp990
I7
asI131
(lp991
I6
asI132
(lp992
I6
asI133
(lp993
I7
asI134
(lp994
I6
asI135
(lp995
I1
asI136
(lp996
I6
asI137
(lp997
I6
asI138
(lp998
I6
asI139
(lp999
I5
asI140
(lp1000
I6
asI141
(lp1001
I6
asI142
(lp1002
I6
asI143
(lp1003
I7
asI144
(lp1004
I3
asI145
(lp1005
I7
asI146
(lp1006
I8
asI147
(lp1007
I5
asI148
(lp1008
I7
asI149
(lp1009
I1
asI150
(lp1010
I6
asI151
(lp1011
I7
asI152
(lp1012
I5
asI153
(lp1013
I6
asI154
(lp1014
I5
asI155
(lp1015
I8
asI156
(lp1016
I6
asI157
(lp1017
I1
asI158
(lp1018
I1
asI159
(lp1019
I1
asI160
(lp1020
I5
asI161
(lp1021
I1
asI162
(lp1022
I7
asI163
(lp1023
I6
asI164
(lp1024
I7
asI165
(lp1025
I1
asI166
(lp1026
I5
asI167
(lp1027
I6
asI168
(lp1028
I7
asI169
(lp1029
I1
asI170
(lp1030
I2
asI171
(lp1031
I7
asI172
(lp1032
I6
asI173
(lp1033
I2
asI174
(lp1034
I2
asI175
(lp1035
I1
asI176
(lp1036
I2
asI177
(lp1037
I5
asI178
(lp1038
I6
asI179
(lp1039
I1
asI180
(lp1040
I1
asI181
(lp1041
I7
asI182
(lp1042
I1
asI183
(lp1043
I7
asI184
(lp1044
I1
asI185
(lp1045
I1
asI186
(lp1046
I1
asI187
(lp1047
I2
asI188
(lp1048
I6
asI189
(lp1049
I7
asI190
(lp1050
I6
asI191
(lp1051
I2
asI192
(lp1052
I2
asI193
(lp1053
I2
asI194
(lp1054
I1
asI195
(lp1055
I1
asI196
(lp1056
I1
asI197
(lp1057
I1
asI198
(lp1058
I1
asI199
(lp1059
I1
asI200
(lp1060
I1
asI201
(lp1061
I1
asI202
(lp1062
I1
asI203
(lp1063
I1
asI204
(lp1064
I1
asI205
(lp1065
I1
asI206
(lp1066
I1
assg3
(g7
S'\x9a\x99\x99\x99\x99\x99\xe9?'
p1067
tp1068
Rp1069
g13
(g14
tp1070
Rp1071
I1
(lp1072
I4
asI2
(lp1073
I3
asI3
(lp1074
I4
asI4
(lp1075
I4
asI5
(lp1076
I4
asI6
(lp1077
I4
asI7
(lp1078
I4
asI8
(lp1079
I4
asI9
(lp1080
I4
asI10
(lp1081
I4
asI11
(lp1082
I4
asI12
(lp1083
I4
asI13
(lp1084
I4
asI14
(lp1085
I4
asI15
(lp1086
I4
asI16
(lp1087
I4
asI17
(lp1088
I4
asI18
(lp1089
I4
asI19
(lp1090
I4
asI20
(lp1091
I4
asI21
(lp1092
I4
asI22
(lp1093
I4
asI23
(lp1094
I4
asI24
(lp1095
I4
asI25
(lp1096
I4
asI26
(lp1097
I4
asI27
(lp1098
I4
asI28
(lp1099
I4
asI29
(lp1100
I4
asI30
(lp1101
I5
asI31
(lp1102
I4
asI32
(lp1103
I4
asI33
(lp1104
I5
asI34
(lp1105
I4
asI35
(lp1106
I4
asI36
(lp1107
I4
asI37
(lp1108
I4
asI38
(lp1109
I5
asI39
(lp1110
I5
asI40
(lp1111
I4
asI41
(lp1112
I4
asI42
(lp1113
I5
asI43
(lp1114
I4
asI44
(lp1115
I4
asI45
(lp1116
I5
asI46
(lp1117
I5
asI47
(lp1118
I6
asI48
(lp1119
I4
asI49
(lp1120
I4
asI50
(lp1121
I4
asI51
(lp1122
I5
asI52
(lp1123
I5
asI53
(lp1124
I6
asI54
(lp1125
I5
asI55
(lp1126
I4
asI56
(lp1127
I4
asI57
(lp1128
I5
asI58
(lp1129
I6
asI59
(lp1130
I5
asI60
(lp1131
I5
asI61
(lp1132
I6
asI62
(lp1133
I5
asI63
(lp1134
I5
asI64
(lp1135
I6
asI65
(lp1136
I5
asI66
(lp1137
I5
asI67
(lp1138
I5
asI68
(lp1139
I6
asI69
(lp1140
I5
asI70
(lp1141
I5
asI71
(lp1142
I5
asI72
(lp1143
I5
asI73
(lp1144
I5
asI74
(lp1145
I5
asI75
(lp1146
I5
asI76
(lp1147
I5
asI77
(lp1148
I6
asI78
(lp1149
I8
asI79
(lp1150
I7
asI80
(lp1151
I5
asI81
(lp1152
I5
asI82
(lp1153
I5
asI83
(lp1154
I4
asI84
(lp1155
I6
asI85
(lp1156
I6
asI86
(lp1157
I6
asI87
(lp1158
I6
asI88
(lp1159
I5
asI89
(lp1160
I5
asI90
(lp1161
I6
asI91
(lp1162
I5
asI92
(lp1163
I5
asI93
(lp1164
I5
asI94
(lp1165
I7
asI95
(lp1166
I6
asI96
(lp1167
I6
asI97
(lp1168
I5
asI98
(lp1169
I6
asI99
(lp1170
I6
asI100
(lp1171
I9
asI101
(lp1172
I10
asI102
(lp1173
I5
asI103
(lp1174
I6
asI104
(lp1175
I2
asI105
(lp1176
I5
asI106
(lp1177
I6
asI107
(lp1178
I6
asI108
(lp1179
I6
asI109
(lp1180
I5
asI110
(lp1181
I7
asI111
(lp1182
I5
asI112
(lp1183
I7
asI113
(lp1184
I2
asI114
(lp1185
I7
asI115
(lp1186
I7
asI116
(lp1187
I8
asI117
(lp1188
I6
asI118
(lp1189
I7
asI119
(lp1190
I1
asI120
(lp1191
I5
asI121
(lp1192
I2
asI122
(lp1193
I1
asI123
(lp1194
I7
asI124
(lp1195
I5
asI125
(lp1196
I7
asI126
(lp1197
I6
asI127
(lp1198
I6
asI128
(lp1199
I5
asI129
(lp1200
I6
asI130
(lp1201
I7
asI131
(lp1202
I7
asI132
(lp1203
I6
asI133
(lp1204
I7
asI134
(lp1205
I6
asI135
(lp1206
I1
asI136
(lp1207
I2
asI137
(lp1208
I8
asI138
(lp1209
I7
asI139
(lp1210
I6
asI140
(lp1211
I6
asI141
(lp1212
I6
asI142
(lp1213
I6
asI143
(lp1214
I7
asI144
(lp1215
I3
asI145
(lp1216
I7
asI146
(lp1217
I8
asI147
(lp1218
I7
asI148
(lp1219
I9
asI149
(lp1220
I1
asI150
(lp1221
I8
asI151
(lp1222
I7
asI152
(lp1223
I6
asI153
(lp1224
I8
asI154
(lp1225
I6
asI155
(lp1226
I9
asI156
(lp1227
I6
asI157
(lp1228
I1
asI158
(lp1229
I1
asI159
(lp1230
I1
asI160
(lp1231
I5
asI161
(lp1232
I1
asI162
(lp1233
I1
asI163
(lp1234
I7
asI164
(lp1235
I7
asI165
(lp1236
I1
asI166
(lp1237
I6
asI167
(lp1238
I6
asI168
(lp1239
I3
asI169
(lp1240
I1
asI170
(lp1241
I1
asI171
(lp1242
I8
asI172
(lp1243
I7
asI173
(lp1244
I2
asI174
(lp1245
I2
asI175
(lp1246
I1
asI176
(lp1247
I1
asI177
(lp1248
I6
asI178
(lp1249
I6
asI179
(lp1250
I1
asI180
(lp1251
I1
asI181
(lp1252
I8
asI182
(lp1253
I1
asI183
(lp1254
I7
asI184
(lp1255
I1
asI185
(lp1256
I1
asI186
(lp1257
I1
asI187
(lp1258
I2
asI188
(lp1259
I6
asI189
(lp1260
I7
asI190
(lp1261
I7
asI191
(lp1262
I2
asI192
(lp1263
I1
asI193
(lp1264
I2
asI194
(lp1265
I1
asI195
(lp1266
I1
asI196
(lp1267
I1
asI197
(lp1268
I1
asI198
(lp1269
I1
asI199
(lp1270
I1
asI200
(lp1271
I1
asI201
(lp1272
I1
asI202
(lp1273
I1
asI203
(lp1274
I1
asI204
(lp1275
I1
asI205
(lp1276
I1
asI206
(lp1277
I1
assg3
(g7
S'433333\xe3?'
p1278
tp1279
Rp1280
g13
(g14
tp1281
Rp1282
I1
(lp1283
I4
asI2
(lp1284
I4
asI3
(lp1285
I4
asI4
(lp1286
I4
asI5
(lp1287
I4
asI6
(lp1288
I4
asI7
(lp1289
I4
asI8
(lp1290
I4
asI9
(lp1291
I4
asI10
(lp1292
I4
asI11
(lp1293
I4
asI12
(lp1294
I4
asI13
(lp1295
I4
asI14
(lp1296
I4
asI15
(lp1297
I4
asI16
(lp1298
I5
asI17
(lp1299
I5
asI18
(lp1300
I4
asI19
(lp1301
I5
asI20
(lp1302
I4
asI21
(lp1303
I5
asI22
(lp1304
I4
asI23
(lp1305
I4
asI24
(lp1306
I5
asI25
(lp1307
I4
asI26
(lp1308
I5
asI27
(lp1309
I5
asI28
(lp1310
I4
asI29
(lp1311
I4
asI30
(lp1312
I5
asI31
(lp1313
I4
asI32
(lp1314
I5
asI33
(lp1315
I5
asI34
(lp1316
I5
asI35
(lp1317
I4
asI36
(lp1318
I4
asI37
(lp1319
I4
asI38
(lp1320
I5
asI39
(lp1321
I5
asI40
(lp1322
I5
asI41
(lp1323
I4
asI42
(lp1324
I5
asI43
(lp1325
I5
asI44
(lp1326
I5
asI45
(lp1327
I6
asI46
(lp1328
I5
asI47
(lp1329
I6
asI48
(lp1330
I5
asI49
(lp1331
I5
asI50
(lp1332
I4
asI51
(lp1333
I5
asI52
(lp1334
I6
asI53
(lp1335
I10
asI54
(lp1336
I5
asI55
(lp1337
I5
asI56
(lp1338
I4
asI57
(lp1339
I5
asI58
(lp1340
I8
asI59
(lp1341
I5
asI60
(lp1342
I6
asI61
(lp1343
I6
asI62
(lp1344
I6
asI63
(lp1345
I5
asI64
(lp1346
I6
asI65
(lp1347
I7
asI66
(lp1348
I6
asI67
(lp1349
I5
asI68
(lp1350
I6
asI69
(lp1351
I5
asI70
(lp1352
I6
asI71
(lp1353
I5
asI72
(lp1354
I6
asI73
(lp1355
I6
asI74
(lp1356
I5
asI75
(lp1357
I7
asI76
(lp1358
I2
asI77
(lp1359
I6
asI78
(lp1360
I2
asI79
(lp1361
I8
asI80
(lp1362
I5
asI81
(lp1363
I2
asI82
(lp1364
I6
asI83
(lp1365
I5
asI84
(lp1366
I8
asI85
(lp1367
I7
asI86
(lp1368
I6
asI87
(lp1369
I7
asI88
(lp1370
I5
asI89
(lp1371
I6
asI90
(lp1372
I6
asI91
(lp1373
I6
asI92
(lp1374
I6
asI93
(lp1375
I5
asI94
(lp1376
I6
asI95
(lp1377
I5
asI96
(lp1378
I7
asI97
(lp1379
I5
asI98
(lp1380
I7
asI99
(lp1381
I6
asI100
(lp1382
I8
asI101
(lp1383
I6
asI102
(lp1384
I6
asI103
(lp1385
I6
asI104
(lp1386
I9
asI105
(lp1387
I7
asI106
(lp1388
I8
asI107
(lp1389
I6
asI108
(lp1390
I4
asI109
(lp1391
I6
asI110
(lp1392
I7
asI111
(lp1393
I5
asI112
(lp1394
I7
asI113
(lp1395
I1
asI114
(lp1396
I2
asI115
(lp1397
I7
asI116
(lp1398
I3
asI117
(lp1399
I7
asI118
(lp1400
I6
asI119
(lp1401
I6
asI120
(lp1402
I5
asI121
(lp1403
I2
asI122
(lp1404
I1
asI123
(lp1405
I7
asI124
(lp1406
I5
asI125
(lp1407
I2
asI126
(lp1408
I6
asI127
(lp1409
I2
asI128
(lp1410
I5
asI129
(lp1411
I1
asI130
(lp1412
I3
asI131
(lp1413
I7
asI132
(lp1414
I6
asI133
(lp1415
I7
asI134
(lp1416
I1
asI135
(lp1417
I1
asI136
(lp1418
I2
asI137
(lp1419
I7
asI138
(lp1420
I7
asI139
(lp1421
I7
asI140
(lp1422
I7
asI141
(lp1423
I3
asI142
(lp1424
I7
asI143
(lp1425
I9
asI144
(lp1426
I2
asI145
(lp1427
I7
asI146
(lp1428
I1
asI147
(lp1429
I9
asI148
(lp1430
I1
asI149
(lp1431
I1
asI150
(lp1432
I2
asI151
(lp1433
I1
asI152
(lp1434
I1
asI153
(lp1435
I8
asI154
(lp1436
I1
asI155
(lp1437
I3
asI156
(lp1438
I2
asI157
(lp1439
I1
asI158
(lp1440
I1
asI159
(lp1441
I1
asI160
(lp1442
I6
asI161
(lp1443
I1
asI162
(lp1444
I9
asI163
(lp1445
I7
asI164
(lp1446
I2
asI165
(lp1447
I1
asI166
(lp1448
I1
asI167
(lp1449
I6
asI168
(lp1450
I1
asI169
(lp1451
I1
asI170
(lp1452
I2
asI171
(lp1453
I1
asI172
(lp1454
I7
asI173
(lp1455
I1
asI174
(lp1456
I1
asI175
(lp1457
I1
asI176
(lp1458
I1
asI177
(lp1459
I6
asI178
(lp1460
I8
asI179
(lp1461
I1
asI180
(lp1462
I1
asI181
(lp1463
I2
asI182
(lp1464
I1
asI183
(lp1465
I1
asI184
(lp1466
I1
asI185
(lp1467
I1
asI186
(lp1468
I1
asI187
(lp1469
I1
asI188
(lp1470
I1
asI189
(lp1471
I7
asI190
(lp1472
I11
asI191
(lp1473
I1
asI192
(lp1474
I1
asI193
(lp1475
I2
asI194
(lp1476
I1
asI195
(lp1477
I1
asI196
(lp1478
I1
asI197
(lp1479
I1
asI198
(lp1480
I1
asI199
(lp1481
I1
asI200
(lp1482
I1
asI201
(lp1483
I1
asI202
(lp1484
I1
asI203
(lp1485
I1
asI204
(lp1486
I1
asI205
(lp1487
I1
asI206
(lp1488
I1
assg3
(g7
S'433333\xd3?'
p1489
tp1490
Rp1491
g13
(g14
tp1492
Rp1493
I1
(lp1494
I5
asI2
(lp1495
I5
asI3
(lp1496
I4
asI4
(lp1497
I4
asI5
(lp1498
I5
asI6
(lp1499
I5
asI7
(lp1500
I4
asI8
(lp1501
I5
asI9
(lp1502
I5
asI10
(lp1503
I6
asI11
(lp1504
I5
asI12
(lp1505
I5
asI13
(lp1506
I5
asI14
(lp1507
I5
asI15
(lp1508
I5
asI16
(lp1509
I6
asI17
(lp1510
I6
asI18
(lp1511
I5
asI19
(lp1512
I5
asI20
(lp1513
I5
asI21
(lp1514
I5
asI22
(lp1515
I6
asI23
(lp1516
I6
asI24
(lp1517
I5
asI25
(lp1518
I6
asI26
(lp1519
I6
asI27
(lp1520
I6
asI28
(lp1521
I5
asI29
(lp1522
I5
asI30
(lp1523
I6
asI31
(lp1524
I5
asI32
(lp1525
I6
asI33
(lp1526
I5
asI34
(lp1527
I6
asI35
(lp1528
I5
asI36
(lp1529
I6
asI37
(lp1530
I5
asI38
(lp1531
I7
asI39
(lp1532
I5
asI40
(lp1533
I6
asI41
(lp1534
I5
asI42
(lp1535
I6
asI43
(lp1536
I9
asI44
(lp1537
I5
asI45
(lp1538
I7
asI46
(lp1539
I7
asI47
(lp1540
I7
asI48
(lp1541
I7
asI49
(lp1542
I7
asI50
(lp1543
I5
asI51
(lp1544
I6
asI52
(lp1545
I10
asI53
(lp1546
I2
asI54
(lp1547
I8
asI55
(lp1548
I6
asI56
(lp1549
I5
asI57
(lp1550
I6
asI58
(lp1551
I2
asI59
(lp1552
I2
asI60
(lp1553
I6
asI61
(lp1554
I10
asI62
(lp1555
I9
asI63
(lp1556
I8
asI64
(lp1557
I2
asI65
(lp1558
I7
asI66
(lp1559
I2
asI67
(lp1560
I11
asI68
(lp1561
I3
asI69
(lp1562
I6
asI70
(lp1563
I3
asI71
(lp1564
I10
asI72
(lp1565
I9
asI73
(lp1566
I3
asI74
(lp1567
I6
asI75
(lp1568
I6
asI76
(lp1569
I4
asI77
(lp1570
I7
asI78
(lp1571
I2
asI79
(lp1572
I10
asI80
(lp1573
I8
asI81
(lp1574
I1
asI82
(lp1575
I2
asI83
(lp1576
I6
asI84
(lp1577
I9
asI85
(lp1578
I10
asI86
(lp1579
I2
asI87
(lp1580
I2
asI88
(lp1581
I9
asI89
(lp1582
I8
asI90
(lp1583
I8
asI91
(lp1584
I8
asI92
(lp1585
I7
asI93
(lp1586
I10
asI94
(lp1587
I3
asI95
(lp1588
I7
asI96
(lp1589
I2
asI97
(lp1590
I10
asI98
(lp1591
I9
asI99
(lp1592
I8
asI100
(lp1593
I5
asI101
(lp1594
I3
asI102
(lp1595
I8
asI103
(lp1596
I6
asI104
(lp1597
I1
asI105
(lp1598
I7
asI106
(lp1599
I2
asI107
(lp1600
I1
asI108
(lp1601
I2
asI109
(lp1602
I6
asI110
(lp1603
I11
asI111
(lp1604
I7
asI112
(lp1605
I9
asI113
(lp1606
I12
asI114
(lp1607
I2
asI115
(lp1608
I4
asI116
(lp1609
I1
asI117
(lp1610
I3
asI118
(lp1611
I2
asI119
(lp1612
I1
asI120
(lp1613
I8
asI121
(lp1614
I1
asI122
(lp1615
I1
asI123
(lp1616
I5
asI124
(lp1617
I6
asI125
(lp1618
I2
asI126
(lp1619
I7
asI127
(lp1620
I2
asI128
(lp1621
I2
asI129
(lp1622
I4
asI130
(lp1623
I2
asI131
(lp1624
I1
asI132
(lp1625
I1
asI133
(lp1626
I2
asI134
(lp1627
I2
asI135
(lp1628
I1
asI136
(lp1629
I2
asI137
(lp1630
I2
asI138
(lp1631
I1
asI139
(lp1632
I3
asI140
(lp1633
I11
asI141
(lp1634
I3
asI142
(lp1635
I9
asI143
(lp1636
I3
asI144
(lp1637
I3
asI145
(lp1638
I15
asI146
(lp1639
I2
asI147
(lp1640
I8
asI148
(lp1641
I10
asI149
(lp1642
I1
asI150
(lp1643
I1
asI151
(lp1644
I2
asI152
(lp1645
I3
asI153
(lp1646
I10
asI154
(lp1647
I1
asI155
(lp1648
I2
asI156
(lp1649
I1
asI157
(lp1650
I1
asI158
(lp1651
I1
asI159
(lp1652
I1
asI160
(lp1653
I3
asI161
(lp1654
I1
asI162
(lp1655
I1
asI163
(lp1656
I6
asI164
(lp1657
I2
asI165
(lp1658
I1
asI166
(lp1659
I7
asI167
(lp1660
I8
asI168
(lp1661
I1
asI169
(lp1662
I1
asI170
(lp1663
I1
asI171
(lp1664
I1
asI172
(lp1665
I1
asI173
(lp1666
I2
asI174
(lp1667
I1
asI175
(lp1668
I1
asI176
(lp1669
I2
asI177
(lp1670
I1
asI178
(lp1671
I1
asI179
(lp1672
I1
asI180
(lp1673
I1
asI181
(lp1674
I10
asI182
(lp1675
I1
asI183
(lp1676
I2
asI184
(lp1677
I1
asI185
(lp1678
I1
asI186
(lp1679
I1
asI187
(lp1680
I1
asI188
(lp1681
I10
asI189
(lp1682
I2
asI190
(lp1683
I1
asI191
(lp1684
I2
asI192
(lp1685
I1
asI193
(lp1686
I1
asI194
(lp1687
I1
asI195
(lp1688
I1
asI196
(lp1689
I1
asI197
(lp1690
I1
asI198
(lp1691
I1
asI199
(lp1692
I1
asI200
(lp1693
I1
asI201
(lp1694
I1
asI202
(lp1695
I1
asI203
(lp1696
I1
asI204
(lp1697
I1
asI205
(lp1698
I1
asI206
(lp1699
I1
assg3
(g7
S'\x9a\x99\x99\x99\x99\x99\xb9?'
p1700
tp1701
Rp1702
g13
(g14
tp1703
Rp1704
I1
(lp1705
I6
asI2
(lp1706
I6
asI3
(lp1707
I7
asI4
(lp1708
I3
asI5
(lp1709
I6
asI6
(lp1710
I6
asI7
(lp1711
I7
asI8
(lp1712
I8
asI9
(lp1713
I7
asI10
(lp1714
I8
asI11
(lp1715
I8
asI12
(lp1716
I8
asI13
(lp1717
I10
asI14
(lp1718
I3
asI15
(lp1719
I11
asI16
(lp1720
I10
asI17
(lp1721
I8
asI18
(lp1722
I7
asI19
(lp1723
I7
asI20
(lp1724
I8
asI21
(lp1725
I7
asI22
(lp1726
I8
asI23
(lp1727
I7
asI24
(lp1728
I8
asI25
(lp1729
I8
asI26
(lp1730
I1
asI27
(lp1731
I8
asI28
(lp1732
I9
asI29
(lp1733
I2
asI30
(lp1734
I8
asI31
(lp1735
I9
asI32
(lp1736
I4
asI33
(lp1737
I3
asI34
(lp1738
I10
asI35
(lp1739
I7
asI36
(lp1740
I12
asI37
(lp1741
I10
asI38
(lp1742
I3
asI39
(lp1743
I11
asI40
(lp1744
I3
asI41
(lp1745
I7
asI42
(lp1746
I4
asI43
(lp1747
I10
asI44
(lp1748
I6
asI45
(lp1749
I2
asI46
(lp1750
I7
asI47
(lp1751
I1
asI48
(lp1752
I7
asI49
(lp1753
I4
asI50
(lp1754
I1
asI51
(lp1755
I3
asI52
(lp1756
I5
asI53
(lp1757
I1
asI54
(lp1758
I9
asI55
(lp1759
I8
asI56
(lp1760
I7
asI57
(lp1761
I2
asI58
(lp1762
I1
asI59
(lp1763
I2
asI60
(lp1764
I3
asI61
(lp1765
I1
asI62
(lp1766
I4
asI63
(lp1767
I4
asI64
(lp1768
I1
asI65
(lp1769
I2
asI66
(lp1770
I1
asI67
(lp1771
I1
asI68
(lp1772
I6
asI69
(lp1773
I2
asI70
(lp1774
I3
asI71
(lp1775
I2
asI72
(lp1776
I3
asI73
(lp1777
I1
asI74
(lp1778
I2
asI75
(lp1779
I10
asI76
(lp1780
I1
asI77
(lp1781
I1
asI78
(lp1782
I1
asI79
(lp1783
I1
asI80
(lp1784
I2
asI81
(lp1785
I3
asI82
(lp1786
I2
asI83
(lp1787
I2
asI84
(lp1788
I3
asI85
(lp1789
I3
asI86
(lp1790
I2
asI87
(lp1791
I4
asI88
(lp1792
I11
asI89
(lp1793
I1
asI90
(lp1794
I2
asI91
(lp1795
I1
asI92
(lp1796
I1
asI93
(lp1797
I3
asI94
(lp1798
I2
asI95
(lp1799
I1
asI96
(lp1800
I1
asI97
(lp1801
I3
asI98
(lp1802
I2
asI99
(lp1803
I3
asI100
(lp1804
I2
asI101
(lp1805
I1
asI102
(lp1806
I1
asI103
(lp1807
I5
asI104
(lp1808
I1
asI105
(lp1809
I2
asI106
(lp1810
I1
asI107
(lp1811
I1
asI108
(lp1812
I1
asI109
(lp1813
I1
asI110
(lp1814
I1
asI111
(lp1815
I2
asI112
(lp1816
I2
asI113
(lp1817
I1
asI114
(lp1818
I1
asI115
(lp1819
I1
asI116
(lp1820
I1
asI117
(lp1821
I2
asI118
(lp1822
I4
asI119
(lp1823
I1
asI120
(lp1824
I3
asI121
(lp1825
I1
asI122
(lp1826
I1
asI123
(lp1827
I1
asI124
(lp1828
I1
asI125
(lp1829
I4
asI126
(lp1830
I9
asI127
(lp1831
I2
asI128
(lp1832
I2
asI129
(lp1833
I1
asI130
(lp1834
I2
asI131
(lp1835
I1
asI132
(lp1836
I1
asI133
(lp1837
I2
asI134
(lp1838
I1
asI135
(lp1839
I1
asI136
(lp1840
I11
asI137
(lp1841
I1
asI138
(lp1842
I1
asI139
(lp1843
I1
asI140
(lp1844
I1
asI141
(lp1845
I1
asI142
(lp1846
I1
asI143
(lp1847
I1
asI144
(lp1848
I2
asI145
(lp1849
I1
asI146
(lp1850
I1
asI147
(lp1851
I1
asI148
(lp1852
I1
asI149
(lp1853
I1
asI150
(lp1854
I2
asI151
(lp1855
I1
asI152
(lp1856
I1
asI153
(lp1857
I3
asI154
(lp1858
I1
asI155
(lp1859
I1
asI156
(lp1860
I1
asI157
(lp1861
I1
asI158
(lp1862
I1
asI159
(lp1863
I1
asI160
(lp1864
I1
asI161
(lp1865
I1
asI162
(lp1866
I1
asI163
(lp1867
I1
asI164
(lp1868
I1
asI165
(lp1869
I1
asI166
(lp1870
I1
asI167
(lp1871
I1
asI168
(lp1872
I3
asI169
(lp1873
I1
asI170
(lp1874
I1
asI171
(lp1875
I2
asI172
(lp1876
I1
asI173
(lp1877
I1
asI174
(lp1878
I1
asI175
(lp1879
I1
asI176
(lp1880
I1
asI177
(lp1881
I1
asI178
(lp1882
I1
asI179
(lp1883
I1
asI180
(lp1884
I1
asI181
(lp1885
I1
asI182
(lp1886
I1
asI183
(lp1887
I1
asI184
(lp1888
I1
asI185
(lp1889
I1
asI186
(lp1890
I1
asI187
(lp1891
I1
asI188
(lp1892
I1
asI189
(lp1893
I1
asI190
(lp1894
I6
asI191
(lp1895
I1
asI192
(lp1896
I2
asI193
(lp1897
I1
asI194
(lp1898
I1
asI195
(lp1899
I1
asI196
(lp1900
I1
asI197
(lp1901
I1
asI198
(lp1902
I1
asI199
(lp1903
I1
asI200
(lp1904
I1
asI201
(lp1905
I1
asI202
(lp1906
I1
asI203
(lp1907
I1
asI204
(lp1908
I1
asI205
(lp1909
I1
asI206
(lp1910
I1
assg3
(g7
S'\xcd\xcc\xcc\xcc\xcc\xcc\xec?'
p1911
tp1912
Rp1913
g13
(g14
tp1914
Rp1915
I1
(lp1916
I4
asI2
(lp1917
I3
asI3
(lp1918
I3
asI4
(lp1919
I4
asI5
(lp1920
I4
asI6
(lp1921
I3
asI7
(lp1922
I3
asI8
(lp1923
I4
asI9
(lp1924
I4
asI10
(lp1925
I4
asI11
(lp1926
I4
asI12
(lp1927
I4
asI13
(lp1928
I4
asI14
(lp1929
I4
asI15
(lp1930
I4
asI16
(lp1931
I4
asI17
(lp1932
I4
asI18
(lp1933
I4
asI19
(lp1934
I4
asI20
(lp1935
I4
asI21
(lp1936
I4
asI22
(lp1937
I4
asI23
(lp1938
I4
asI24
(lp1939
I4
asI25
(lp1940
I4
asI26
(lp1941
I4
asI27
(lp1942
I4
asI28
(lp1943
I4
asI29
(lp1944
I4
asI30
(lp1945
I4
asI31
(lp1946
I4
asI32
(lp1947
I4
asI33
(lp1948
I4
asI34
(lp1949
I4
asI35
(lp1950
I4
asI36
(lp1951
I4
asI37
(lp1952
I4
asI38
(lp1953
I4
asI39
(lp1954
I4
asI40
(lp1955
I4
asI41
(lp1956
I4
asI42
(lp1957
I4
asI43
(lp1958
I4
asI44
(lp1959
I4
asI45
(lp1960
I5
asI46
(lp1961
I4
asI47
(lp1962
I5
asI48
(lp1963
I4
asI49
(lp1964
I4
asI50
(lp1965
I4
asI51
(lp1966
I4
asI52
(lp1967
I5
asI53
(lp1968
I6
asI54
(lp1969
I5
asI55
(lp1970
I4
asI56
(lp1971
I4
asI57
(lp1972
I5
asI58
(lp1973
I6
asI59
(lp1974
I5
asI60
(lp1975
I5
asI61
(lp1976
I5
asI62
(lp1977
I5
asI63
(lp1978
I5
asI64
(lp1979
I6
asI65
(lp1980
I5
asI66
(lp1981
I5
asI67
(lp1982
I5
asI68
(lp1983
I6
asI69
(lp1984
I4
asI70
(lp1985
I5
asI71
(lp1986
I5
asI72
(lp1987
I5
asI73
(lp1988
I5
asI74
(lp1989
I5
asI75
(lp1990
I5
asI76
(lp1991
I5
asI77
(lp1992
I5
asI78
(lp1993
I7
asI79
(lp1994
I6
asI80
(lp1995
I5
asI81
(lp1996
I5
asI82
(lp1997
I5
asI83
(lp1998
I5
asI84
(lp1999
I6
asI85
(lp2000
I5
asI86
(lp2001
I6
asI87
(lp2002
I6
asI88
(lp2003
I5
asI89
(lp2004
I5
asI90
(lp2005
I6
asI91
(lp2006
I5
asI92
(lp2007
I5
asI93
(lp2008
I5
asI94
(lp2009
I6
asI95
(lp2010
I5
asI96
(lp2011
I6
asI97
(lp2012
I5
asI98
(lp2013
I6
asI99
(lp2014
I6
asI100
(lp2015
I8
asI101
(lp2016
I7
asI102
(lp2017
I5
asI103
(lp2018
I7
asI104
(lp2019
I6
asI105
(lp2020
I5
asI106
(lp2021
I6
asI107
(lp2022
I6
asI108
(lp2023
I6
asI109
(lp2024
I5
asI110
(lp2025
I6
asI111
(lp2026
I5
asI112
(lp2027
I5
asI113
(lp2028
I7
asI114
(lp2029
I7
asI115
(lp2030
I7
asI116
(lp2031
I8
asI117
(lp2032
I6
asI118
(lp2033
I6
asI119
(lp2034
I5
asI120
(lp2035
I5
asI121
(lp2036
I2
asI122
(lp2037
I1
asI123
(lp2038
I7
asI124
(lp2039
I5
asI125
(lp2040
I6
asI126
(lp2041
I5
asI127
(lp2042
I6
asI128
(lp2043
I4
asI129
(lp2044
I6
asI130
(lp2045
I8
asI131
(lp2046
I7
asI132
(lp2047
I6
asI133
(lp2048
I3
asI134
(lp2049
I7
asI135
(lp2050
I1
asI136
(lp2051
I6
asI137
(lp2052
I6
asI138
(lp2053
I7
asI139
(lp2054
I5
asI140
(lp2055
I6
asI141
(lp2056
I6
asI142
(lp2057
I2
asI143
(lp2058
I7
asI144
(lp2059
I3
asI145
(lp2060
I7
asI146
(lp2061
I8
asI147
(lp2062
I5
asI148
(lp2063
I1
asI149
(lp2064
I1
asI150
(lp2065
I3
asI151
(lp2066
I7
asI152
(lp2067
I5
asI153
(lp2068
I6
asI154
(lp2069
I6
asI155
(lp2070
I8
asI156
(lp2071
I6
asI157
(lp2072
I1
asI158
(lp2073
I1
asI159
(lp2074
I1
asI160
(lp2075
I5
asI161
(lp2076
I1
asI162
(lp2077
I1
asI163
(lp2078
I7
asI164
(lp2079
I7
asI165
(lp2080
I1
asI166
(lp2081
I8
asI167
(lp2082
I6
asI168
(lp2083
I7
asI169
(lp2084
I1
asI170
(lp2085
I2
asI171
(lp2086
I8
asI172
(lp2087
I6
asI173
(lp2088
I2
asI174
(lp2089
I2
asI175
(lp2090
I1
asI176
(lp2091
I2
asI177
(lp2092
I8
asI178
(lp2093
I6
asI179
(lp2094
I1
asI180
(lp2095
I1
asI181
(lp2096
I7
asI182
(lp2097
I1
asI183
(lp2098
I7
asI184
(lp2099
I1
asI185
(lp2100
I1
asI186
(lp2101
I1
asI187
(lp2102
I1
asI188
(lp2103
I7
asI189
(lp2104
I7
asI190
(lp2105
I7
asI191
(lp2106
I2
asI192
(lp2107
I2
asI193
(lp2108
I2
asI194
(lp2109
I1
asI195
(lp2110
I1
asI196
(lp2111
I1
asI197
(lp2112
I1
asI198
(lp2113
I1
asI199
(lp2114
I1
asI200
(lp2115
I1
asI201
(lp2116
I1
asI202
(lp2117
I1
asI203
(lp2118
I1
asI204
(lp2119
I1
asI205
(lp2120
I1
asI206
(lp2121
I1
assg3
(g7
S'gfffff\xe6?'
p2122
tp2123
Rp2124
g13
(g14
tp2125
Rp2126
I1
(lp2127
I4
asI2
(lp2128
I4
asI3
(lp2129
I4
asI4
(lp2130
I4
asI5
(lp2131
I4
asI6
(lp2132
I4
asI7
(lp2133
I3
asI8
(lp2134
I4
asI9
(lp2135
I4
asI10
(lp2136
I4
asI11
(lp2137
I4
asI12
(lp2138
I4
asI13
(lp2139
I4
asI14
(lp2140
I5
asI15
(lp2141
I4
asI16
(lp2142
I4
asI17
(lp2143
I4
asI18
(lp2144
I4
asI19
(lp2145
I4
asI20
(lp2146
I4
asI21
(lp2147
I4
asI22
(lp2148
I5
asI23
(lp2149
I5
asI24
(lp2150
I4
asI25
(lp2151
I4
asI26
(lp2152
I4
asI27
(lp2153
I4
asI28
(lp2154
I4
asI29
(lp2155
I4
asI30
(lp2156
I5
asI31
(lp2157
I4
asI32
(lp2158
I5
asI33
(lp2159
I5
asI34
(lp2160
I5
asI35
(lp2161
I4
asI36
(lp2162
I4
asI37
(lp2163
I4
asI38
(lp2164
I5
asI39
(lp2165
I5
asI40
(lp2166
I4
asI41
(lp2167
I4
asI42
(lp2168
I5
asI43
(lp2169
I5
asI44
(lp2170
I4
asI45
(lp2171
I5
asI46
(lp2172
I5
asI47
(lp2173
I6
asI48
(lp2174
I4
asI49
(lp2175
I4
asI50
(lp2176
I5
asI51
(lp2177
I5
asI52
(lp2178
I5
asI53
(lp2179
I6
asI54
(lp2180
I5
asI55
(lp2181
I4
asI56
(lp2182
I4
asI57
(lp2183
I5
asI58
(lp2184
I6
asI59
(lp2185
I5
asI60
(lp2186
I5
asI61
(lp2187
I5
asI62
(lp2188
I6
asI63
(lp2189
I6
asI64
(lp2190
I6
asI65
(lp2191
I6
asI66
(lp2192
I5
asI67
(lp2193
I5
asI68
(lp2194
I6
asI69
(lp2195
I5
asI70
(lp2196
I6
asI71
(lp2197
I6
asI72
(lp2198
I6
asI73
(lp2199
I6
asI74
(lp2200
I5
asI75
(lp2201
I7
asI76
(lp2202
I10
asI77
(lp2203
I5
asI78
(lp2204
I7
asI79
(lp2205
I2
asI80
(lp2206
I5
asI81
(lp2207
I6
asI82
(lp2208
I6
asI83
(lp2209
I5
asI84
(lp2210
I6
asI85
(lp2211
I7
asI86
(lp2212
I6
asI87
(lp2213
I8
asI88
(lp2214
I6
asI89
(lp2215
I6
asI90
(lp2216
I6
asI91
(lp2217
I6
asI92
(lp2218
I6
asI93
(lp2219
I6
asI94
(lp2220
I6
asI95
(lp2221
I6
asI96
(lp2222
I5
asI97
(lp2223
I5
asI98
(lp2224
I7
asI99
(lp2225
I6
asI100
(lp2226
I8
asI101
(lp2227
I6
asI102
(lp2228
I6
asI103
(lp2229
I5
asI104
(lp2230
I7
asI105
(lp2231
I5
asI106
(lp2232
I7
asI107
(lp2233
I6
asI108
(lp2234
I6
asI109
(lp2235
I5
asI110
(lp2236
I7
asI111
(lp2237
I5
asI112
(lp2238
I7
asI113
(lp2239
I1
asI114
(lp2240
I7
asI115
(lp2241
I9
asI116
(lp2242
I8
asI117
(lp2243
I6
asI118
(lp2244
I6
asI119
(lp2245
I6
asI120
(lp2246
I6
asI121
(lp2247
I2
asI122
(lp2248
I1
asI123
(lp2249
I7
asI124
(lp2250
I5
asI125
(lp2251
I7
asI126
(lp2252
I5
asI127
(lp2253
I6
asI128
(lp2254
I5
asI129
(lp2255
I6
asI130
(lp2256
I4
asI131
(lp2257
I7
asI132
(lp2258
I6
asI133
(lp2259
I7
asI134
(lp2260
I9
asI135
(lp2261
I1
asI136
(lp2262
I6
asI137
(lp2263
I2
asI138
(lp2264
I7
asI139
(lp2265
I6
asI140
(lp2266
I6
asI141
(lp2267
I7
asI142
(lp2268
I6
asI143
(lp2269
I7
asI144
(lp2270
I1
asI145
(lp2271
I3
asI146
(lp2272
I2
asI147
(lp2273
I6
asI148
(lp2274
I8
asI149
(lp2275
I1
asI150
(lp2276
I7
asI151
(lp2277
I7
asI152
(lp2278
I5
asI153
(lp2279
I11
asI154
(lp2280
I1
asI155
(lp2281
I3
asI156
(lp2282
I6
asI157
(lp2283
I1
asI158
(lp2284
I1
asI159
(lp2285
I1
asI160
(lp2286
I6
asI161
(lp2287
I1
asI162
(lp2288
I8
asI163
(lp2289
I6
asI164
(lp2290
I7
asI165
(lp2291
I1
asI166
(lp2292
I5
asI167
(lp2293
I1
asI168
(lp2294
I3
asI169
(lp2295
I1
asI170
(lp2296
I2
asI171
(lp2297
I8
asI172
(lp2298
I8
asI173
(lp2299
I1
asI174
(lp2300
I1
asI175
(lp2301
I1
asI176
(lp2302
I2
asI177
(lp2303
I6
asI178
(lp2304
I2
asI179
(lp2305
I1
asI180
(lp2306
I1
asI181
(lp2307
I2
asI182
(lp2308
I1
asI183
(lp2309
I1
asI184
(lp2310
I1
asI185
(lp2311
I1
asI186
(lp2312
I1
asI187
(lp2313
I2
asI188
(lp2314
I7
asI189
(lp2315
I3
asI190
(lp2316
I8
asI191
(lp2317
I2
asI192
(lp2318
I2
asI193
(lp2319
I1
asI194
(lp2320
I1
asI195
(lp2321
I1
asI196
(lp2322
I1
asI197
(lp2323
I1
asI198
(lp2324
I1
asI199
(lp2325
I1
asI200
(lp2326
I1
asI201
(lp2327
I1
asI202
(lp2328
I1
asI203
(lp2329
I1
asI204
(lp2330
I1
asI205
(lp2331
I1
asI206
(lp2332
I1
asssS'size'
p2333
(dp2334
g12
g13
(g14
tp2335
Rp2336
I1
(lp2337
F0.004878048780487805
asI2
(lp2338
F0.004878048780487805
asI3
(lp2339
F0.004878048780487805
asI4
(lp2340
F0.004878048780487805
asI5
(lp2341
F0.004878048780487805
asI6
(lp2342
F0.004878048780487805
asI7
(lp2343
F0.004878048780487805
asI8
(lp2344
F0.004878048780487805
asI9
(lp2345
F0.004878048780487805
asI10
(lp2346
F0.004878048780487805
asI11
(lp2347
F0.004878048780487805
asI12
(lp2348
F0.004878048780487805
asI13
(lp2349
F0.004878048780487805
asI14
(lp2350
F0.004878048780487805
asI15
(lp2351
F0.004878048780487805
asI16
(lp2352
F0.004878048780487805
asI17
(lp2353
F0.004878048780487805
asI18
(lp2354
F0.004878048780487805
asI19
(lp2355
F0.004878048780487805
asI20
(lp2356
F0.004878048780487805
asI21
(lp2357
F0.004878048780487805
asI22
(lp2358
F0.004878048780487805
asI23
(lp2359
F0.004878048780487805
asI24
(lp2360
F0.004878048780487805
asI25
(lp2361
F0.004878048780487805
asI26
(lp2362
F0.004878048780487805
asI27
(lp2363
F0.004878048780487805
asI28
(lp2364
F0.004878048780487805
asI29
(lp2365
F0.004878048780487805
asI30
(lp2366
F0.004878048780487805
asI31
(lp2367
F0.004878048780487805
asI32
(lp2368
F0.004878048780487805
asI33
(lp2369
F0.004878048780487805
asI34
(lp2370
F0.004878048780487805
asI35
(lp2371
F0.004878048780487805
asI36
(lp2372
F0.004878048780487805
asI37
(lp2373
F0.004878048780487805
asI38
(lp2374
F0.004878048780487805
asI39
(lp2375
F0.004878048780487805
asI40
(lp2376
F0.004878048780487805
asI41
(lp2377
F0.004878048780487805
asI42
(lp2378
F0.004878048780487805
asI43
(lp2379
F0.004878048780487805
asI44
(lp2380
F0.004878048780487805
asI45
(lp2381
F0.004878048780487805
asI46
(lp2382
F0.004878048780487805
asI47
(lp2383
F0.004878048780487805
asI48
(lp2384
F0.004878048780487805
asI49
(lp2385
F0.004878048780487805
asI50
(lp2386
F0.004878048780487805
asI51
(lp2387
F0.004878048780487805
asI52
(lp2388
F0.004878048780487805
asI53
(lp2389
F0.004878048780487805
asI54
(lp2390
F0.004878048780487805
asI55
(lp2391
F0.004878048780487805
asI56
(lp2392
F0.004878048780487805
asI57
(lp2393
F0.004878048780487805
asI58
(lp2394
F0.004878048780487805
asI59
(lp2395
F0.004878048780487805
asI60
(lp2396
F0.004878048780487805
asI61
(lp2397
F0.004878048780487805
asI62
(lp2398
F0.004878048780487805
asI63
(lp2399
F0.004878048780487805
asI64
(lp2400
F0.004878048780487805
asI65
(lp2401
F0.004878048780487805
asI66
(lp2402
F0.004878048780487805
asI67
(lp2403
F0.004878048780487805
asI68
(lp2404
F0.004878048780487805
asI69
(lp2405
F0.004878048780487805
asI70
(lp2406
F0.004878048780487805
asI71
(lp2407
F0.004878048780487805
asI72
(lp2408
F0.004878048780487805
asI73
(lp2409
F0.004878048780487805
asI74
(lp2410
F0.004878048780487805
asI75
(lp2411
F0.004878048780487805
asI76
(lp2412
F0.004878048780487805
asI77
(lp2413
F0.004878048780487805
asI78
(lp2414
F0.004878048780487805
asI79
(lp2415
F0.004878048780487805
asI80
(lp2416
F0.004878048780487805
asI81
(lp2417
F0.004878048780487805
asI82
(lp2418
F0.004878048780487805
asI83
(lp2419
F0.004878048780487805
asI84
(lp2420
F0.004878048780487805
asI85
(lp2421
F0.004878048780487805
asI86
(lp2422
F0.004878048780487805
asI87
(lp2423
F0.004878048780487805
asI88
(lp2424
F0.004878048780487805
asI89
(lp2425
F0.004878048780487805
asI90
(lp2426
F0.004878048780487805
asI91
(lp2427
F0.004878048780487805
asI92
(lp2428
F0.004878048780487805
asI93
(lp2429
F0.004878048780487805
asI94
(lp2430
F0.004878048780487805
asI95
(lp2431
F0.004878048780487805
asI96
(lp2432
F0.004878048780487805
asI97
(lp2433
F0.004878048780487805
asI98
(lp2434
F0.004878048780487805
asI99
(lp2435
F0.004878048780487805
asI100
(lp2436
F0.004878048780487805
asI101
(lp2437
F0.004878048780487805
asI102
(lp2438
F0.004878048780487805
asI103
(lp2439
F0.004878048780487805
asI104
(lp2440
F0.004878048780487805
asI105
(lp2441
F0.004878048780487805
asI106
(lp2442
F0.004878048780487805
asI107
(lp2443
F0.004878048780487805
asI108
(lp2444
F0.004878048780487805
asI109
(lp2445
F0.004878048780487805
asI110
(lp2446
F0.004878048780487805
asI111
(lp2447
F0.004878048780487805
asI112
(lp2448
F0.004878048780487805
asI113
(lp2449
F0.004878048780487805
asI114
(lp2450
F0.004878048780487805
asI115
(lp2451
F0.004878048780487805
asI116
(lp2452
F0.004878048780487805
asI117
(lp2453
F0.004878048780487805
asI118
(lp2454
F0.004878048780487805
asI119
(lp2455
F0.004878048780487805
asI120
(lp2456
F0.004878048780487805
asI121
(lp2457
F0.004878048780487805
asI122
(lp2458
F0.004878048780487805
asI123
(lp2459
F0.004878048780487805
asI124
(lp2460
F0.004878048780487805
asI125
(lp2461
F0.004878048780487805
asI126
(lp2462
F0.004878048780487805
asI127
(lp2463
F0.004878048780487805
asI128
(lp2464
F0.004878048780487805
asI129
(lp2465
F0.004878048780487805
asI130
(lp2466
F0.004878048780487805
asI131
(lp2467
F0.004878048780487805
asI132
(lp2468
F0.004878048780487805
asI133
(lp2469
F0.004878048780487805
asI134
(lp2470
F0.004878048780487805
asI135
(lp2471
F0.004878048780487805
asI136
(lp2472
F0.004878048780487805
asI137
(lp2473
F0.004878048780487805
asI138
(lp2474
F0.004878048780487805
asI139
(lp2475
F0.004878048780487805
asI140
(lp2476
F0.004878048780487805
asI141
(lp2477
F0.004878048780487805
asI142
(lp2478
F0.004878048780487805
asI143
(lp2479
F0.004878048780487805
asI144
(lp2480
F0.004878048780487805
asI145
(lp2481
F0.004878048780487805
asI146
(lp2482
F0.004878048780487805
asI147
(lp2483
F0.004878048780487805
asI148
(lp2484
F0.004878048780487805
asI149
(lp2485
F0.004878048780487805
asI150
(lp2486
F0.004878048780487805
asI151
(lp2487
F0.004878048780487805
asI152
(lp2488
F0.004878048780487805
asI153
(lp2489
F0.004878048780487805
asI154
(lp2490
F0.004878048780487805
asI155
(lp2491
F0.004878048780487805
asI156
(lp2492
F0.004878048780487805
asI157
(lp2493
F0.004878048780487805
asI158
(lp2494
F0.004878048780487805
asI159
(lp2495
F0.004878048780487805
asI160
(lp2496
F0.004878048780487805
asI161
(lp2497
F0.004878048780487805
asI162
(lp2498
F0.004878048780487805
asI163
(lp2499
F0.004878048780487805
asI164
(lp2500
F0.004878048780487805
asI165
(lp2501
F0.004878048780487805
asI166
(lp2502
F0.004878048780487805
asI167
(lp2503
F0.004878048780487805
asI168
(lp2504
F0.004878048780487805
asI169
(lp2505
F0.004878048780487805
asI170
(lp2506
F0.004878048780487805
asI171
(lp2507
F0.004878048780487805
asI172
(lp2508
F0.004878048780487805
asI173
(lp2509
F0.004878048780487805
asI174
(lp2510
F0.004878048780487805
asI175
(lp2511
F0.004878048780487805
asI176
(lp2512
F0.004878048780487805
asI177
(lp2513
F0.004878048780487805
asI178
(lp2514
F0.004878048780487805
asI179
(lp2515
F0.004878048780487805
asI180
(lp2516
F0.004878048780487805
asI181
(lp2517
F0.004878048780487805
asI182
(lp2518
F0.004878048780487805
asI183
(lp2519
F0.004878048780487805
asI184
(lp2520
F0.004878048780487805
asI185
(lp2521
F0.004878048780487805
asI186
(lp2522
F0.004878048780487805
asI187
(lp2523
F0.004878048780487805
asI188
(lp2524
F0.004878048780487805
asI189
(lp2525
F0.004878048780487805
asI190
(lp2526
F0.004878048780487805
asI191
(lp2527
F0.004878048780487805
asI192
(lp2528
F0.004878048780487805
asI193
(lp2529
F0.004878048780487805
asI194
(lp2530
F0.004878048780487805
asI195
(lp2531
F0.004878048780487805
asI196
(lp2532
F0.004878048780487805
asI197
(lp2533
F0.004878048780487805
asI198
(lp2534
F0.004878048780487805
asI199
(lp2535
F0.004878048780487805
asI200
(lp2536
F0.004878048780487805
asI201
(lp2537
F0.004878048780487805
asI202
(lp2538
F0.004878048780487805
asI203
(lp2539
F0.004878048780487805
asI204
(lp2540
F0.004878048780487805
asI205
(lp2541
F0.004878048780487805
asI206
(lp2542
F0.0
assg225
g13
(g14
tp2543
Rp2544
I1
(lp2545
F0.9951219512195122
asI2
(lp2546
F1.0
asI3
(lp2547
F0.9853658536585366
asI4
(lp2548
F0.9951219512195122
asI5
(lp2549
F1.0
asI6
(lp2550
F1.0
asI7
(lp2551
F1.0
asI8
(lp2552
F0.9902439024390244
asI9
(lp2553
F0.9951219512195122
asI10
(lp2554
F0.9951219512195122
asI11
(lp2555
F0.9853658536585366
asI12
(lp2556
F0.9951219512195122
asI13
(lp2557
F1.0
asI14
(lp2558
F0.9902439024390244
asI15
(lp2559
F1.0
asI16
(lp2560
F0.9902439024390244
asI17
(lp2561
F1.0
asI18
(lp2562
F1.0
asI19
(lp2563
F0.9951219512195122
asI20
(lp2564
F0.9951219512195122
asI21
(lp2565
F1.0
asI22
(lp2566
F0.9951219512195122
asI23
(lp2567
F0.9951219512195122
asI24
(lp2568
F0.9951219512195122
asI25
(lp2569
F1.0
asI26
(lp2570
F1.0
asI27
(lp2571
F0.9951219512195122
asI28
(lp2572
F1.0
asI29
(lp2573
F0.9853658536585366
asI30
(lp2574
F0.9951219512195122
asI31
(lp2575
F1.0
asI32
(lp2576
F0.9951219512195122
asI33
(lp2577
F0.9902439024390244
asI34
(lp2578
F0.9853658536585366
asI35
(lp2579
F0.9951219512195122
asI36
(lp2580
F0.9853658536585366
asI37
(lp2581
F1.0
asI38
(lp2582
F0.9902439024390244
asI39
(lp2583
F0.9951219512195122
asI40
(lp2584
F0.9951219512195122
asI41
(lp2585
F0.9902439024390244
asI42
(lp2586
F1.0
asI43
(lp2587
F0.9951219512195122
asI44
(lp2588
F1.0
asI45
(lp2589
F1.0
asI46
(lp2590
F0.9951219512195122
asI47
(lp2591
F1.0
asI48
(lp2592
F1.0
asI49
(lp2593
F0.9951219512195122
asI50
(lp2594
F0.9902439024390244
asI51
(lp2595
F1.0
asI52
(lp2596
F0.9853658536585366
asI53
(lp2597
F0.9902439024390244
asI54
(lp2598
F0.9902439024390244
asI55
(lp2599
F1.0
asI56
(lp2600
F0.9951219512195122
asI57
(lp2601
F0.9951219512195122
asI58
(lp2602
F1.0
asI59
(lp2603
F0.9902439024390244
asI60
(lp2604
F0.9951219512195122
asI61
(lp2605
F0.9902439024390244
asI62
(lp2606
F0.9951219512195122
asI63
(lp2607
F0.9951219512195122
asI64
(lp2608
F0.9902439024390244
asI65
(lp2609
F1.0
asI66
(lp2610
F0.9951219512195122
asI67
(lp2611
F1.0
asI68
(lp2612
F1.0
asI69
(lp2613
F0.9951219512195122
asI70
(lp2614
F0.9902439024390244
asI71
(lp2615
F0.9951219512195122
asI72
(lp2616
F0.9951219512195122
asI73
(lp2617
F0.9902439024390244
asI74
(lp2618
F1.0
asI75
(lp2619
F0.9951219512195122
asI76
(lp2620
F0.9902439024390244
asI77
(lp2621
F0.9853658536585366
asI78
(lp2622
F1.0
asI79
(lp2623
F0.004878048780487805
asI80
(lp2624
F1.0
asI81
(lp2625
F0.024390243902439025
asI82
(lp2626
F1.0
asI83
(lp2627
F0.9902439024390244
asI84
(lp2628
F0.9951219512195122
asI85
(lp2629
F1.0
asI86
(lp2630
F0.9951219512195122
asI87
(lp2631
F0.9853658536585366
asI88
(lp2632
F0.9951219512195122
asI89
(lp2633
F0.9951219512195122
asI90
(lp2634
F0.9902439024390244
asI91
(lp2635
F1.0
asI92
(lp2636
F1.0
asI93
(lp2637
F0.9951219512195122
asI94
(lp2638
F1.0
asI95
(lp2639
F0.9902439024390244
asI96
(lp2640
F1.0
asI97
(lp2641
F1.0
asI98
(lp2642
F1.0
asI99
(lp2643
F0.9951219512195122
asI100
(lp2644
F1.0
asI101
(lp2645
F1.0
asI102
(lp2646
F0.9951219512195122
asI103
(lp2647
F0.9951219512195122
asI104
(lp2648
F0.05853658536585366
asI105
(lp2649
F0.00975609756097561
asI106
(lp2650
F0.9951219512195122
asI107
(lp2651
F0.004878048780487805
asI108
(lp2652
F0.004878048780487805
asI109
(lp2653
F1.0
asI110
(lp2654
F0.00975609756097561
asI111
(lp2655
F0.9951219512195122
asI112
(lp2656
F1.0
asI113
(lp2657
F0.03414634146341464
asI114
(lp2658
F1.0
asI115
(lp2659
F0.9853658536585366
asI116
(lp2660
F0.02926829268292683
asI117
(lp2661
F0.9951219512195122
asI118
(lp2662
F1.0
asI119
(lp2663
F0.9853658536585366
asI120
(lp2664
F1.0
asI121
(lp2665
F0.004878048780487805
asI122
(lp2666
F0.004878048780487805
asI123
(lp2667
F1.0
asI124
(lp2668
F0.9951219512195122
asI125
(lp2669
F1.0
asI126
(lp2670
F0.9902439024390244
asI127
(lp2671
F1.0
asI128
(lp2672
F0.9951219512195122
asI129
(lp2673
F0.9951219512195122
asI130
(lp2674
F0.014634146341463415
asI131
(lp2675
F0.9902439024390244
asI132
(lp2676
F0.9951219512195122
asI133
(lp2677
F0.014634146341463415
asI134
(lp2678
F0.00975609756097561
asI135
(lp2679
F0.004878048780487805
asI136
(lp2680
F0.00975609756097561
asI137
(lp2681
F0.02926829268292683
asI138
(lp2682
F0.004878048780487805
asI139
(lp2683
F0.9951219512195122
asI140
(lp2684
F1.0
asI141
(lp2685
F0.014634146341463415
asI142
(lp2686
F1.0
asI143
(lp2687
F1.0
asI144
(lp2688
F0.004878048780487805
asI145
(lp2689
F1.0
asI146
(lp2690
F0.014634146341463415
asI147
(lp2691
F0.024390243902439025
asI148
(lp2692
F0.004878048780487805
asI149
(lp2693
F0.004878048780487805
asI150
(lp2694
F0.014634146341463415
asI151
(lp2695
F0.9951219512195122
asI152
(lp2696
F0.9951219512195122
asI153
(lp2697
F1.0
asI154
(lp2698
F0.004878048780487805
asI155
(lp2699
F0.01951219512195122
asI156
(lp2700
F1.0
asI157
(lp2701
F0.004878048780487805
asI158
(lp2702
F0.004878048780487805
asI159
(lp2703
F0.004878048780487805
asI160
(lp2704
F0.9951219512195122
asI161
(lp2705
F0.004878048780487805
asI162
(lp2706
F0.9951219512195122
asI163
(lp2707
F0.9951219512195122
asI164
(lp2708
F1.0
asI165
(lp2709
F0.004878048780487805
asI166
(lp2710
F0.9902439024390244
asI167
(lp2711
F0.004878048780487805
asI168
(lp2712
F0.004878048780487805
asI169
(lp2713
F0.004878048780487805
asI170
(lp2714
F0.00975609756097561
asI171
(lp2715
F0.014634146341463415
asI172
(lp2716
F0.9951219512195122
asI173
(lp2717
F0.004878048780487805
asI174
(lp2718
F0.004878048780487805
asI175
(lp2719
F0.004878048780487805
asI176
(lp2720
F0.004878048780487805
asI177
(lp2721
F0.004878048780487805
asI178
(lp2722
F0.9951219512195122
asI179
(lp2723
F0.004878048780487805
asI180
(lp2724
F0.004878048780487805
asI181
(lp2725
F0.004878048780487805
asI182
(lp2726
F0.004878048780487805
asI183
(lp2727
F0.004878048780487805
asI184
(lp2728
F0.004878048780487805
asI185
(lp2729
F0.004878048780487805
asI186
(lp2730
F0.004878048780487805
asI187
(lp2731
F0.004878048780487805
asI188
(lp2732
F0.004878048780487805
asI189
(lp2733
F0.004878048780487805
asI190
(lp2734
F1.0
asI191
(lp2735
F0.00975609756097561
asI192
(lp2736
F0.00975609756097561
asI193
(lp2737
F0.004878048780487805
asI194
(lp2738
F0.004878048780487805
asI195
(lp2739
F0.004878048780487805
asI196
(lp2740
F0.004878048780487805
asI197
(lp2741
F0.004878048780487805
asI198
(lp2742
F0.004878048780487805
asI199
(lp2743
F0.004878048780487805
asI200
(lp2744
F0.004878048780487805
asI201
(lp2745
F0.004878048780487805
asI202
(lp2746
F0.004878048780487805
asI203
(lp2747
F0.004878048780487805
asI204
(lp2748
F0.004878048780487805
asI205
(lp2749
F0.004878048780487805
asI206
(lp2750
F0.0
assg436
g13
(g14
tp2751
Rp2752
I1
(lp2753
F0.9170731707317074
asI2
(lp2754
F0.9317073170731708
asI3
(lp2755
F0.9463414634146341
asI4
(lp2756
F0.9463414634146341
asI5
(lp2757
F0.926829268292683
asI6
(lp2758
F0.926829268292683
asI7
(lp2759
F0.9365853658536586
asI8
(lp2760
F0.9317073170731708
asI9
(lp2761
F0.9560975609756097
asI10
(lp2762
F0.9121951219512195
asI11
(lp2763
F0.9170731707317074
asI12
(lp2764
F0.9365853658536586
asI13
(lp2765
F0.9365853658536586
asI14
(lp2766
F0.9365853658536586
asI15
(lp2767
F0.9365853658536586
asI16
(lp2768
F0.9512195121951219
asI17
(lp2769
F0.9463414634146341
asI18
(lp2770
F0.9365853658536586
asI19
(lp2771
F0.9317073170731708
asI20
(lp2772
F0.8975609756097561
asI21
(lp2773
F0.9414634146341463
asI22
(lp2774
F0.9463414634146341
asI23
(lp2775
F0.9414634146341463
asI24
(lp2776
F0.9317073170731708
asI25
(lp2777
F0.926829268292683
asI26
(lp2778
F0.9317073170731708
asI27
(lp2779
F0.9317073170731708
asI28
(lp2780
F0.9463414634146341
asI29
(lp2781
F0.9560975609756097
asI30
(lp2782
F0.9463414634146341
asI31
(lp2783
F0.9317073170731708
asI32
(lp2784
F0.9317073170731708
asI33
(lp2785
F0.9317073170731708
asI34
(lp2786
F0.9170731707317074
asI35
(lp2787
F0.926829268292683
asI36
(lp2788
F0.9365853658536586
asI37
(lp2789
F0.9365853658536586
asI38
(lp2790
F0.926829268292683
asI39
(lp2791
F0.9512195121951219
asI40
(lp2792
F0.9365853658536586
asI41
(lp2793
F0.9219512195121952
asI42
(lp2794
F0.9463414634146341
asI43
(lp2795
F0.9560975609756097
asI44
(lp2796
F0.9414634146341463
asI45
(lp2797
F0.014634146341463415
asI46
(lp2798
F0.926829268292683
asI47
(lp2799
F0.06829268292682927
asI48
(lp2800
F0.9024390243902439
asI49
(lp2801
F0.05853658536585366
asI50
(lp2802
F0.9170731707317074
asI51
(lp2803
F0.9463414634146341
asI52
(lp2804
F0.9073170731707317
asI53
(lp2805
F0.004878048780487805
asI54
(lp2806
F0.01951219512195122
asI55
(lp2807
F0.9024390243902439
asI56
(lp2808
F0.02926829268292683
asI57
(lp2809
F0.9414634146341463
asI58
(lp2810
F0.926829268292683
asI59
(lp2811
F0.9219512195121952
asI60
(lp2812
F0.014634146341463415
asI61
(lp2813
F0.11707317073170732
asI62
(lp2814
F0.9317073170731708
asI63
(lp2815
F0.014634146341463415
asI64
(lp2816
F0.004878048780487805
asI65
(lp2817
F0.01951219512195122
asI66
(lp2818
F0.9317073170731708
asI67
(lp2819
F0.9512195121951219
asI68
(lp2820
F0.9512195121951219
asI69
(lp2821
F0.004878048780487805
asI70
(lp2822
F0.014634146341463415
asI71
(lp2823
F0.9512195121951219
asI72
(lp2824
F0.9365853658536586
asI73
(lp2825
F0.9512195121951219
asI74
(lp2826
F0.9121951219512195
asI75
(lp2827
F0.04390243902439024
asI76
(lp2828
F0.014634146341463415
asI77
(lp2829
F0.00975609756097561
asI78
(lp2830
F0.004878048780487805
asI79
(lp2831
F0.00975609756097561
asI80
(lp2832
F0.01951219512195122
asI81
(lp2833
F0.00975609756097561
asI82
(lp2834
F0.00975609756097561
asI83
(lp2835
F0.9219512195121952
asI84
(lp2836
F0.004878048780487805
asI85
(lp2837
F0.09268292682926829
asI86
(lp2838
F0.9414634146341463
asI87
(lp2839
F0.024390243902439025
asI88
(lp2840
F0.03414634146341464
asI89
(lp2841
F0.004878048780487805
asI90
(lp2842
F0.014634146341463415
asI91
(lp2843
F0.9560975609756097
asI92
(lp2844
F0.00975609756097561
asI93
(lp2845
F0.024390243902439025
asI94
(lp2846
F0.00975609756097561
asI95
(lp2847
F0.9365853658536586
asI96
(lp2848
F0.9365853658536586
asI97
(lp2849
F0.004878048780487805
asI98
(lp2850
F0.00975609756097561
asI99
(lp2851
F0.9414634146341463
asI100
(lp2852
F0.00975609756097561
asI101
(lp2853
F0.004878048780487805
asI102
(lp2854
F0.9317073170731708
asI103
(lp2855
F0.014634146341463415
asI104
(lp2856
F0.00975609756097561
asI105
(lp2857
F0.9365853658536586
asI106
(lp2858
F0.014634146341463415
asI107
(lp2859
F0.04390243902439024
asI108
(lp2860
F0.004878048780487805
asI109
(lp2861
F0.9365853658536586
asI110
(lp2862
F0.004878048780487805
asI111
(lp2863
F0.9317073170731708
asI112
(lp2864
F0.024390243902439025
asI113
(lp2865
F0.004878048780487805
asI114
(lp2866
F0.00975609756097561
asI115
(lp2867
F0.004878048780487805
asI116
(lp2868
F0.004878048780487805
asI117
(lp2869
F0.926829268292683
asI118
(lp2870
F0.024390243902439025
asI119
(lp2871
F0.004878048780487805
asI120
(lp2872
F0.004878048780487805
asI121
(lp2873
F0.004878048780487805
asI122
(lp2874
F0.004878048780487805
asI123
(lp2875
F0.00975609756097561
asI124
(lp2876
F0.004878048780487805
asI125
(lp2877
F0.004878048780487805
asI126
(lp2878
F0.9219512195121952
asI127
(lp2879
F0.00975609756097561
asI128
(lp2880
F0.9073170731707317
asI129
(lp2881
F0.004878048780487805
asI130
(lp2882
F0.16585365853658537
asI131
(lp2883
F0.004878048780487805
asI132
(lp2884
F0.01951219512195122
asI133
(lp2885
F0.004878048780487805
asI134
(lp2886
F0.004878048780487805
asI135
(lp2887
F0.004878048780487805
asI136
(lp2888
F0.00975609756097561
asI137
(lp2889
F0.01951219512195122
asI138
(lp2890
F0.004878048780487805
asI139
(lp2891
F0.9365853658536586
asI140
(lp2892
F0.01951219512195122
asI141
(lp2893
F0.9317073170731708
asI142
(lp2894
F0.00975609756097561
asI143
(lp2895
F0.004878048780487805
asI144
(lp2896
F0.004878048780487805
asI145
(lp2897
F0.00975609756097561
asI146
(lp2898
F0.00975609756097561
asI147
(lp2899
F0.004878048780487805
asI148
(lp2900
F0.004878048780487805
asI149
(lp2901
F0.004878048780487805
asI150
(lp2902
F0.00975609756097561
asI151
(lp2903
F0.004878048780487805
asI152
(lp2904
F0.004878048780487805
asI153
(lp2905
F0.014634146341463415
asI154
(lp2906
F0.004878048780487805
asI155
(lp2907
F0.014634146341463415
asI156
(lp2908
F0.004878048780487805
asI157
(lp2909
F0.004878048780487805
asI158
(lp2910
F0.004878048780487805
asI159
(lp2911
F0.004878048780487805
asI160
(lp2912
F0.00975609756097561
asI161
(lp2913
F0.004878048780487805
asI162
(lp2914
F0.01951219512195122
asI163
(lp2915
F0.00975609756097561
asI164
(lp2916
F0.004878048780487805
asI165
(lp2917
F0.004878048780487805
asI166
(lp2918
F0.004878048780487805
asI167
(lp2919
F0.05853658536585366
asI168
(lp2920
F0.004878048780487805
asI169
(lp2921
F0.004878048780487805
asI170
(lp2922
F0.004878048780487805
asI171
(lp2923
F0.004878048780487805
asI172
(lp2924
F0.004878048780487805
asI173
(lp2925
F0.004878048780487805
asI174
(lp2926
F0.004878048780487805
asI175
(lp2927
F0.004878048780487805
asI176
(lp2928
F0.00975609756097561
asI177
(lp2929
F0.004878048780487805
asI178
(lp2930
F0.00975609756097561
asI179
(lp2931
F0.004878048780487805
asI180
(lp2932
F0.004878048780487805
asI181
(lp2933
F0.004878048780487805
asI182
(lp2934
F0.004878048780487805
asI183
(lp2935
F0.004878048780487805
asI184
(lp2936
F0.004878048780487805
asI185
(lp2937
F0.004878048780487805
asI186
(lp2938
F0.004878048780487805
asI187
(lp2939
F0.00975609756097561
asI188
(lp2940
F0.01951219512195122
asI189
(lp2941
F0.004878048780487805
asI190
(lp2942
F0.004878048780487805
asI191
(lp2943
F0.004878048780487805
asI192
(lp2944
F0.004878048780487805
asI193
(lp2945
F0.004878048780487805
asI194
(lp2946
F0.004878048780487805
asI195
(lp2947
F0.004878048780487805
asI196
(lp2948
F0.004878048780487805
asI197
(lp2949
F0.004878048780487805
asI198
(lp2950
F0.004878048780487805
asI199
(lp2951
F0.004878048780487805
asI200
(lp2952
F0.004878048780487805
asI201
(lp2953
F0.004878048780487805
asI202
(lp2954
F0.004878048780487805
asI203
(lp2955
F0.004878048780487805
asI204
(lp2956
F0.004878048780487805
asI205
(lp2957
F0.004878048780487805
asI206
(lp2958
F0.0
assg647
g13
(g14
tp2959
Rp2960
I1
(lp2961
F0.9951219512195122
asI2
(lp2962
F0.9951219512195122
asI3
(lp2963
F0.9951219512195122
asI4
(lp2964
F0.9853658536585366
asI5
(lp2965
F0.9902439024390244
asI6
(lp2966
F0.9902439024390244
asI7
(lp2967
F0.9951219512195122
asI8
(lp2968
F0.9853658536585366
asI9
(lp2969
F0.9902439024390244
asI10
(lp2970
F0.9707317073170731
asI11
(lp2971
F0.9951219512195122
asI12
(lp2972
F0.9804878048780488
asI13
(lp2973
F0.9902439024390244
asI14
(lp2974
F0.9853658536585366
asI15
(lp2975
F0.9951219512195122
asI16
(lp2976
F0.9902439024390244
asI17
(lp2977
F0.9951219512195122
asI18
(lp2978
F0.9951219512195122
asI19
(lp2979
F0.9951219512195122
asI20
(lp2980
F0.9902439024390244
asI21
(lp2981
F0.9853658536585366
asI22
(lp2982
F1.0
asI23
(lp2983
F1.0
asI24
(lp2984
F0.9951219512195122
asI25
(lp2985
F0.9853658536585366
asI26
(lp2986
F0.9902439024390244
asI27
(lp2987
F0.9951219512195122
asI28
(lp2988
F0.9853658536585366
asI29
(lp2989
F0.9853658536585366
asI30
(lp2990
F0.9951219512195122
asI31
(lp2991
F0.9902439024390244
asI32
(lp2992
F0.9902439024390244
asI33
(lp2993
F0.9902439024390244
asI34
(lp2994
F0.9853658536585366
asI35
(lp2995
F0.9951219512195122
asI36
(lp2996
F0.975609756097561
asI37
(lp2997
F0.9853658536585366
asI38
(lp2998
F0.9804878048780488
asI39
(lp2999
F1.0
asI40
(lp3000
F0.9853658536585366
asI41
(lp3001
F0.9853658536585366
asI42
(lp3002
F0.9951219512195122
asI43
(lp3003
F0.9853658536585366
asI44
(lp3004
F0.9853658536585366
asI45
(lp3005
F0.9902439024390244
asI46
(lp3006
F0.9902439024390244
asI47
(lp3007
F0.9853658536585366
asI48
(lp3008
F0.9853658536585366
asI49
(lp3009
F0.9902439024390244
asI50
(lp3010
F1.0
asI51
(lp3011
F0.9853658536585366
asI52
(lp3012
F0.9951219512195122
asI53
(lp3013
F0.9853658536585366
asI54
(lp3014
F0.9951219512195122
asI55
(lp3015
F0.9902439024390244
asI56
(lp3016
F1.0
asI57
(lp3017
F1.0
asI58
(lp3018
F0.9951219512195122
asI59
(lp3019
F1.0
asI60
(lp3020
F0.9853658536585366
asI61
(lp3021
F0.975609756097561
asI62
(lp3022
F0.9902439024390244
asI63
(lp3023
F0.9902439024390244
asI64
(lp3024
F0.9902439024390244
asI65
(lp3025
F0.9951219512195122
asI66
(lp3026
F0.9951219512195122
asI67
(lp3027
F0.9853658536585366
asI68
(lp3028
F0.9804878048780488
asI69
(lp3029
F0.00975609756097561
asI70
(lp3030
F0.9902439024390244
asI71
(lp3031
F0.9951219512195122
asI72
(lp3032
F0.9951219512195122
asI73
(lp3033
F0.9902439024390244
asI74
(lp3034
F0.9951219512195122
asI75
(lp3035
F1.0
asI76
(lp3036
F0.9902439024390244
asI77
(lp3037
F0.9951219512195122
asI78
(lp3038
F0.00975609756097561
asI79
(lp3039
F0.004878048780487805
asI80
(lp3040
F0.9853658536585366
asI81
(lp3041
F0.9853658536585366
asI82
(lp3042
F0.01951219512195122
asI83
(lp3043
F0.9902439024390244
asI84
(lp3044
F0.9902439024390244
asI85
(lp3045
F0.9853658536585366
asI86
(lp3046
F0.9853658536585366
asI87
(lp3047
F0.9951219512195122
asI88
(lp3048
F1.0
asI89
(lp3049
F0.9902439024390244
asI90
(lp3050
F0.03414634146341464
asI91
(lp3051
F0.975609756097561
asI92
(lp3052
F0.975609756097561
asI93
(lp3053
F0.9853658536585366
asI94
(lp3054
F0.9951219512195122
asI95
(lp3055
F0.9902439024390244
asI96
(lp3056
F0.004878048780487805
asI97
(lp3057
F0.04390243902439024
asI98
(lp3058
F0.9951219512195122
asI99
(lp3059
F0.9902439024390244
asI100
(lp3060
F0.00975609756097561
asI101
(lp3061
F0.004878048780487805
asI102
(lp3062
F1.0
asI103
(lp3063
F0.9902439024390244
asI104
(lp3064
F0.9951219512195122
asI105
(lp3065
F0.9853658536585366
asI106
(lp3066
F0.9951219512195122
asI107
(lp3067
F0.9902439024390244
asI108
(lp3068
F0.004878048780487805
asI109
(lp3069
F0.9902439024390244
asI110
(lp3070
F1.0
asI111
(lp3071
F0.9804878048780488
asI112
(lp3072
F0.9853658536585366
asI113
(lp3073
F0.00975609756097561
asI114
(lp3074
F0.00975609756097561
asI115
(lp3075
F0.00975609756097561
asI116
(lp3076
F0.014634146341463415
asI117
(lp3077
F0.004878048780487805
asI118
(lp3078
F0.9853658536585366
asI119
(lp3079
F0.9951219512195122
asI120
(lp3080
F0.9707317073170731
asI121
(lp3081
F0.00975609756097561
asI122
(lp3082
F0.004878048780487805
asI123
(lp3083
F0.9853658536585366
asI124
(lp3084
F0.00975609756097561
asI125
(lp3085
F0.00975609756097561
asI126
(lp3086
F0.9951219512195122
asI127
(lp3087
F1.0
asI128
(lp3088
F0.9951219512195122
asI129
(lp3089
F0.9951219512195122
asI130
(lp3090
F0.05365853658536585
asI131
(lp3091
F0.004878048780487805
asI132
(lp3092
F0.004878048780487805
asI133
(lp3093
F0.9902439024390244
asI134
(lp3094
F0.014634146341463415
asI135
(lp3095
F0.004878048780487805
asI136
(lp3096
F0.9951219512195122
asI137
(lp3097
F0.01951219512195122
asI138
(lp3098
F0.004878048780487805
asI139
(lp3099
F0.01951219512195122
asI140
(lp3100
F1.0
asI141
(lp3101
F0.00975609756097561
asI142
(lp3102
F0.9853658536585366
asI143
(lp3103
F0.004878048780487805
asI144
(lp3104
F0.004878048780487805
asI145
(lp3105
F0.024390243902439025
asI146
(lp3106
F0.00975609756097561
asI147
(lp3107
F0.9951219512195122
asI148
(lp3108
F0.01951219512195122
asI149
(lp3109
F0.004878048780487805
asI150
(lp3110
F0.004878048780487805
asI151
(lp3111
F0.004878048780487805
asI152
(lp3112
F0.004878048780487805
asI153
(lp3113
F0.975609756097561
asI154
(lp3114
F0.004878048780487805
asI155
(lp3115
F0.014634146341463415
asI156
(lp3116
F1.0
asI157
(lp3117
F0.004878048780487805
asI158
(lp3118
F0.004878048780487805
asI159
(lp3119
F0.004878048780487805
asI160
(lp3120
F0.975609756097561
asI161
(lp3121
F0.004878048780487805
asI162
(lp3122
F0.004878048780487805
asI163
(lp3123
F0.00975609756097561
asI164
(lp3124
F0.00975609756097561
asI165
(lp3125
F0.004878048780487805
asI166
(lp3126
F0.00975609756097561
asI167
(lp3127
F0.9951219512195122
asI168
(lp3128
F0.004878048780487805
asI169
(lp3129
F0.004878048780487805
asI170
(lp3130
F0.00975609756097561
asI171
(lp3131
F0.004878048780487805
asI172
(lp3132
F0.004878048780487805
asI173
(lp3133
F0.004878048780487805
asI174
(lp3134
F0.004878048780487805
asI175
(lp3135
F0.004878048780487805
asI176
(lp3136
F0.004878048780487805
asI177
(lp3137
F0.9902439024390244
asI178
(lp3138
F0.00975609756097561
asI179
(lp3139
F0.004878048780487805
asI180
(lp3140
F0.004878048780487805
asI181
(lp3141
F0.004878048780487805
asI182
(lp3142
F0.004878048780487805
asI183
(lp3143
F0.004878048780487805
asI184
(lp3144
F0.004878048780487805
asI185
(lp3145
F0.004878048780487805
asI186
(lp3146
F0.004878048780487805
asI187
(lp3147
F0.004878048780487805
asI188
(lp3148
F0.9853658536585366
asI189
(lp3149
F0.004878048780487805
asI190
(lp3150
F0.00975609756097561
asI191
(lp3151
F0.00975609756097561
asI192
(lp3152
F0.004878048780487805
asI193
(lp3153
F0.004878048780487805
asI194
(lp3154
F0.004878048780487805
asI195
(lp3155
F0.004878048780487805
asI196
(lp3156
F0.004878048780487805
asI197
(lp3157
F0.004878048780487805
asI198
(lp3158
F0.004878048780487805
asI199
(lp3159
F0.004878048780487805
asI200
(lp3160
F0.004878048780487805
asI201
(lp3161
F0.004878048780487805
asI202
(lp3162
F0.004878048780487805
asI203
(lp3163
F0.004878048780487805
asI204
(lp3164
F0.004878048780487805
asI205
(lp3165
F0.004878048780487805
asI206
(lp3166
F0.0
assg858
g13
(g14
tp3167
Rp3168
I1
(lp3169
F1.0
asI2
(lp3170
F1.0
asI3
(lp3171
F1.0
asI4
(lp3172
F1.0
asI5
(lp3173
F1.0
asI6
(lp3174
F1.0
asI7
(lp3175
F1.0
asI8
(lp3176
F1.0
asI9
(lp3177
F1.0
asI10
(lp3178
F1.0
asI11
(lp3179
F1.0
asI12
(lp3180
F1.0
asI13
(lp3181
F1.0
asI14
(lp3182
F1.0
asI15
(lp3183
F1.0
asI16
(lp3184
F1.0
asI17
(lp3185
F1.0
asI18
(lp3186
F1.0
asI19
(lp3187
F1.0
asI20
(lp3188
F1.0
asI21
(lp3189
F1.0
asI22
(lp3190
F1.0
asI23
(lp3191
F1.0
asI24
(lp3192
F1.0
asI25
(lp3193
F1.0
asI26
(lp3194
F1.0
asI27
(lp3195
F1.0
asI28
(lp3196
F1.0
asI29
(lp3197
F1.0
asI30
(lp3198
F1.0
asI31
(lp3199
F1.0
asI32
(lp3200
F1.0
asI33
(lp3201
F1.0
asI34
(lp3202
F1.0
asI35
(lp3203
F1.0
asI36
(lp3204
F1.0
asI37
(lp3205
F1.0
asI38
(lp3206
F1.0
asI39
(lp3207
F1.0
asI40
(lp3208
F1.0
asI41
(lp3209
F1.0
asI42
(lp3210
F1.0
asI43
(lp3211
F1.0
asI44
(lp3212
F1.0
asI45
(lp3213
F1.0
asI46
(lp3214
F1.0
asI47
(lp3215
F1.0
asI48
(lp3216
F1.0
asI49
(lp3217
F1.0
asI50
(lp3218
F1.0
asI51
(lp3219
F1.0
asI52
(lp3220
F1.0
asI53
(lp3221
F1.0
asI54
(lp3222
F1.0
asI55
(lp3223
F1.0
asI56
(lp3224
F1.0
asI57
(lp3225
F1.0
asI58
(lp3226
F1.0
asI59
(lp3227
F1.0
asI60
(lp3228
F1.0
asI61
(lp3229
F1.0
asI62
(lp3230
F1.0
asI63
(lp3231
F1.0
asI64
(lp3232
F1.0
asI65
(lp3233
F1.0
asI66
(lp3234
F1.0
asI67
(lp3235
F1.0
asI68
(lp3236
F1.0
asI69
(lp3237
F1.0
asI70
(lp3238
F1.0
asI71
(lp3239
F1.0
asI72
(lp3240
F1.0
asI73
(lp3241
F1.0
asI74
(lp3242
F1.0
asI75
(lp3243
F1.0
asI76
(lp3244
F1.0
asI77
(lp3245
F1.0
asI78
(lp3246
F1.0
asI79
(lp3247
F1.0
asI80
(lp3248
F1.0
asI81
(lp3249
F1.0
asI82
(lp3250
F1.0
asI83
(lp3251
F1.0
asI84
(lp3252
F1.0
asI85
(lp3253
F1.0
asI86
(lp3254
F1.0
asI87
(lp3255
F1.0
asI88
(lp3256
F1.0
asI89
(lp3257
F1.0
asI90
(lp3258
F1.0
asI91
(lp3259
F1.0
asI92
(lp3260
F1.0
asI93
(lp3261
F1.0
asI94
(lp3262
F1.0
asI95
(lp3263
F1.0
asI96
(lp3264
F1.0
asI97
(lp3265
F1.0
asI98
(lp3266
F1.0
asI99
(lp3267
F1.0
asI100
(lp3268
F1.0
asI101
(lp3269
F1.0
asI102
(lp3270
F1.0
asI103
(lp3271
F1.0
asI104
(lp3272
F1.0
asI105
(lp3273
F1.0
asI106
(lp3274
F1.0
asI107
(lp3275
F1.0
asI108
(lp3276
F1.0
asI109
(lp3277
F1.0
asI110
(lp3278
F1.0
asI111
(lp3279
F1.0
asI112
(lp3280
F1.0
asI113
(lp3281
F1.0
asI114
(lp3282
F1.0
asI115
(lp3283
F1.0
asI116
(lp3284
F1.0
asI117
(lp3285
F1.0
asI118
(lp3286
F1.0
asI119
(lp3287
F1.0
asI120
(lp3288
F1.0
asI121
(lp3289
F0.014634146341463415
asI122
(lp3290
F0.004878048780487805
asI123
(lp3291
F1.0
asI124
(lp3292
F1.0
asI125
(lp3293
F1.0
asI126
(lp3294
F1.0
asI127
(lp3295
F1.0
asI128
(lp3296
F1.0
asI129
(lp3297
F1.0
asI130
(lp3298
F1.0
asI131
(lp3299
F1.0
asI132
(lp3300
F1.0
asI133
(lp3301
F1.0
asI134
(lp3302
F1.0
asI135
(lp3303
F0.004878048780487805
asI136
(lp3304
F1.0
asI137
(lp3305
F1.0
asI138
(lp3306
F1.0
asI139
(lp3307
F1.0
asI140
(lp3308
F1.0
asI141
(lp3309
F1.0
asI142
(lp3310
F1.0
asI143
(lp3311
F1.0
asI144
(lp3312
F0.014634146341463415
asI145
(lp3313
F1.0
asI146
(lp3314
F1.0
asI147
(lp3315
F1.0
asI148
(lp3316
F1.0
asI149
(lp3317
F0.004878048780487805
asI150
(lp3318
F1.0
asI151
(lp3319
F1.0
asI152
(lp3320
F1.0
asI153
(lp3321
F1.0
asI154
(lp3322
F1.0
asI155
(lp3323
F1.0
asI156
(lp3324
F1.0
asI157
(lp3325
F0.004878048780487805
asI158
(lp3326
F0.004878048780487805
asI159
(lp3327
F0.004878048780487805
asI160
(lp3328
F1.0
asI161
(lp3329
F0.004878048780487805
asI162
(lp3330
F1.0
asI163
(lp3331
F1.0
asI164
(lp3332
F1.0
asI165
(lp3333
F0.004878048780487805
asI166
(lp3334
F1.0
asI167
(lp3335
F1.0
asI168
(lp3336
F1.0
asI169
(lp3337
F0.004878048780487805
asI170
(lp3338
F0.00975609756097561
asI171
(lp3339
F1.0
asI172
(lp3340
F1.0
asI173
(lp3341
F0.00975609756097561
asI174
(lp3342
F0.00975609756097561
asI175
(lp3343
F0.004878048780487805
asI176
(lp3344
F0.00975609756097561
asI177
(lp3345
F1.0
asI178
(lp3346
F1.0
asI179
(lp3347
F0.004878048780487805
asI180
(lp3348
F0.004878048780487805
asI181
(lp3349
F1.0
asI182
(lp3350
F0.004878048780487805
asI183
(lp3351
F1.0
asI184
(lp3352
F0.004878048780487805
asI185
(lp3353
F0.004878048780487805
asI186
(lp3354
F0.004878048780487805
asI187
(lp3355
F0.00975609756097561
asI188
(lp3356
F1.0
asI189
(lp3357
F1.0
asI190
(lp3358
F1.0
asI191
(lp3359
F0.00975609756097561
asI192
(lp3360
F0.00975609756097561
asI193
(lp3361
F0.00975609756097561
asI194
(lp3362
F0.004878048780487805
asI195
(lp3363
F0.004878048780487805
asI196
(lp3364
F0.004878048780487805
asI197
(lp3365
F0.004878048780487805
asI198
(lp3366
F0.004878048780487805
asI199
(lp3367
F0.004878048780487805
asI200
(lp3368
F0.004878048780487805
asI201
(lp3369
F0.004878048780487805
asI202
(lp3370
F0.004878048780487805
asI203
(lp3371
F0.004878048780487805
asI204
(lp3372
F0.004878048780487805
asI205
(lp3373
F0.004878048780487805
asI206
(lp3374
F0.0
assg1069
g13
(g14
tp3375
Rp3376
I1
(lp3377
F1.0
asI2
(lp3378
F1.0
asI3
(lp3379
F1.0
asI4
(lp3380
F1.0
asI5
(lp3381
F1.0
asI6
(lp3382
F1.0
asI7
(lp3383
F1.0
asI8
(lp3384
F1.0
asI9
(lp3385
F1.0
asI10
(lp3386
F1.0
asI11
(lp3387
F1.0
asI12
(lp3388
F1.0
asI13
(lp3389
F1.0
asI14
(lp3390
F0.9951219512195122
asI15
(lp3391
F1.0
asI16
(lp3392
F1.0
asI17
(lp3393
F1.0
asI18
(lp3394
F1.0
asI19
(lp3395
F1.0
asI20
(lp3396
F1.0
asI21
(lp3397
F1.0
asI22
(lp3398
F1.0
asI23
(lp3399
F1.0
asI24
(lp3400
F1.0
asI25
(lp3401
F1.0
asI26
(lp3402
F1.0
asI27
(lp3403
F1.0
asI28
(lp3404
F0.9951219512195122
asI29
(lp3405
F1.0
asI30
(lp3406
F1.0
asI31
(lp3407
F1.0
asI32
(lp3408
F0.9951219512195122
asI33
(lp3409
F1.0
asI34
(lp3410
F1.0
asI35
(lp3411
F1.0
asI36
(lp3412
F1.0
asI37
(lp3413
F1.0
asI38
(lp3414
F0.9951219512195122
asI39
(lp3415
F1.0
asI40
(lp3416
F1.0
asI41
(lp3417
F1.0
asI42
(lp3418
F1.0
asI43
(lp3419
F1.0
asI44
(lp3420
F1.0
asI45
(lp3421
F1.0
asI46
(lp3422
F1.0
asI47
(lp3423
F1.0
asI48
(lp3424
F1.0
asI49
(lp3425
F1.0
asI50
(lp3426
F1.0
asI51
(lp3427
F1.0
asI52
(lp3428
F1.0
asI53
(lp3429
F1.0
asI54
(lp3430
F1.0
asI55
(lp3431
F0.9951219512195122
asI56
(lp3432
F1.0
asI57
(lp3433
F1.0
asI58
(lp3434
F1.0
asI59
(lp3435
F1.0
asI60
(lp3436
F1.0
asI61
(lp3437
F0.9951219512195122
asI62
(lp3438
F1.0
asI63
(lp3439
F1.0
asI64
(lp3440
F1.0
asI65
(lp3441
F1.0
asI66
(lp3442
F1.0
asI67
(lp3443
F1.0
asI68
(lp3444
F1.0
asI69
(lp3445
F1.0
asI70
(lp3446
F0.9951219512195122
asI71
(lp3447
F1.0
asI72
(lp3448
F1.0
asI73
(lp3449
F1.0
asI74
(lp3450
F1.0
asI75
(lp3451
F1.0
asI76
(lp3452
F1.0
asI77
(lp3453
F1.0
asI78
(lp3454
F1.0
asI79
(lp3455
F1.0
asI80
(lp3456
F1.0
asI81
(lp3457
F1.0
asI82
(lp3458
F1.0
asI83
(lp3459
F1.0
asI84
(lp3460
F1.0
asI85
(lp3461
F1.0
asI86
(lp3462
F1.0
asI87
(lp3463
F1.0
asI88
(lp3464
F1.0
asI89
(lp3465
F1.0
asI90
(lp3466
F1.0
asI91
(lp3467
F1.0
asI92
(lp3468
F1.0
asI93
(lp3469
F1.0
asI94
(lp3470
F1.0
asI95
(lp3471
F1.0
asI96
(lp3472
F1.0
asI97
(lp3473
F1.0
asI98
(lp3474
F1.0
asI99
(lp3475
F1.0
asI100
(lp3476
F1.0
asI101
(lp3477
F1.0
asI102
(lp3478
F1.0
asI103
(lp3479
F1.0
asI104
(lp3480
F0.00975609756097561
asI105
(lp3481
F1.0
asI106
(lp3482
F0.9951219512195122
asI107
(lp3483
F1.0
asI108
(lp3484
F1.0
asI109
(lp3485
F1.0
asI110
(lp3486
F1.0
asI111
(lp3487
F0.9951219512195122
asI112
(lp3488
F1.0
asI113
(lp3489
F0.014634146341463415
asI114
(lp3490
F1.0
asI115
(lp3491
F1.0
asI116
(lp3492
F1.0
asI117
(lp3493
F1.0
asI118
(lp3494
F1.0
asI119
(lp3495
F0.004878048780487805
asI120
(lp3496
F1.0
asI121
(lp3497
F0.014634146341463415
asI122
(lp3498
F0.004878048780487805
asI123
(lp3499
F1.0
asI124
(lp3500
F1.0
asI125
(lp3501
F1.0
asI126
(lp3502
F1.0
asI127
(lp3503
F0.9951219512195122
asI128
(lp3504
F1.0
asI129
(lp3505
F1.0
asI130
(lp3506
F0.9951219512195122
asI131
(lp3507
F1.0
asI132
(lp3508
F1.0
asI133
(lp3509
F1.0
asI134
(lp3510
F1.0
asI135
(lp3511
F0.004878048780487805
asI136
(lp3512
F0.00975609756097561
asI137
(lp3513
F1.0
asI138
(lp3514
F1.0
asI139
(lp3515
F1.0
asI140
(lp3516
F1.0
asI141
(lp3517
F1.0
asI142
(lp3518
F1.0
asI143
(lp3519
F1.0
asI144
(lp3520
F0.014634146341463415
asI145
(lp3521
F1.0
asI146
(lp3522
F1.0
asI147
(lp3523
F1.0
asI148
(lp3524
F1.0
asI149
(lp3525
F0.004878048780487805
asI150
(lp3526
F1.0
asI151
(lp3527
F1.0
asI152
(lp3528
F1.0
asI153
(lp3529
F1.0
asI154
(lp3530
F1.0
asI155
(lp3531
F1.0
asI156
(lp3532
F1.0
asI157
(lp3533
F0.004878048780487805
asI158
(lp3534
F0.004878048780487805
asI159
(lp3535
F0.004878048780487805
asI160
(lp3536
F1.0
asI161
(lp3537
F0.004878048780487805
asI162
(lp3538
F0.004878048780487805
asI163
(lp3539
F1.0
asI164
(lp3540
F1.0
asI165
(lp3541
F0.004878048780487805
asI166
(lp3542
F1.0
asI167
(lp3543
F1.0
asI168
(lp3544
F0.014634146341463415
asI169
(lp3545
F0.004878048780487805
asI170
(lp3546
F0.004878048780487805
asI171
(lp3547
F1.0
asI172
(lp3548
F1.0
asI173
(lp3549
F0.00975609756097561
asI174
(lp3550
F0.00975609756097561
asI175
(lp3551
F0.004878048780487805
asI176
(lp3552
F0.004878048780487805
asI177
(lp3553
F1.0
asI178
(lp3554
F1.0
asI179
(lp3555
F0.004878048780487805
asI180
(lp3556
F0.004878048780487805
asI181
(lp3557
F1.0
asI182
(lp3558
F0.004878048780487805
asI183
(lp3559
F1.0
asI184
(lp3560
F0.004878048780487805
asI185
(lp3561
F0.004878048780487805
asI186
(lp3562
F0.004878048780487805
asI187
(lp3563
F0.00975609756097561
asI188
(lp3564
F1.0
asI189
(lp3565
F1.0
asI190
(lp3566
F1.0
asI191
(lp3567
F0.00975609756097561
asI192
(lp3568
F0.004878048780487805
asI193
(lp3569
F0.00975609756097561
asI194
(lp3570
F0.004878048780487805
asI195
(lp3571
F0.004878048780487805
asI196
(lp3572
F0.004878048780487805
asI197
(lp3573
F0.004878048780487805
asI198
(lp3574
F0.004878048780487805
asI199
(lp3575
F0.004878048780487805
asI200
(lp3576
F0.004878048780487805
asI201
(lp3577
F0.004878048780487805
asI202
(lp3578
F0.004878048780487805
asI203
(lp3579
F0.004878048780487805
asI204
(lp3580
F0.004878048780487805
asI205
(lp3581
F0.004878048780487805
asI206
(lp3582
F0.0
assg1280
g13
(g14
tp3583
Rp3584
I1
(lp3585
F1.0
asI2
(lp3586
F1.0
asI3
(lp3587
F1.0
asI4
(lp3588
F1.0
asI5
(lp3589
F0.9951219512195122
asI6
(lp3590
F1.0
asI7
(lp3591
F1.0
asI8
(lp3592
F1.0
asI9
(lp3593
F1.0
asI10
(lp3594
F1.0
asI11
(lp3595
F1.0
asI12
(lp3596
F0.9951219512195122
asI13
(lp3597
F1.0
asI14
(lp3598
F0.9951219512195122
asI15
(lp3599
F1.0
asI16
(lp3600
F1.0
asI17
(lp3601
F1.0
asI18
(lp3602
F1.0
asI19
(lp3603
F1.0
asI20
(lp3604
F0.9951219512195122
asI21
(lp3605
F0.9951219512195122
asI22
(lp3606
F0.9951219512195122
asI23
(lp3607
F1.0
asI24
(lp3608
F1.0
asI25
(lp3609
F1.0
asI26
(lp3610
F1.0
asI27
(lp3611
F1.0
asI28
(lp3612
F0.9951219512195122
asI29
(lp3613
F1.0
asI30
(lp3614
F0.9951219512195122
asI31
(lp3615
F1.0
asI32
(lp3616
F0.9951219512195122
asI33
(lp3617
F1.0
asI34
(lp3618
F1.0
asI35
(lp3619
F1.0
asI36
(lp3620
F0.9951219512195122
asI37
(lp3621
F1.0
asI38
(lp3622
F1.0
asI39
(lp3623
F0.9902439024390244
asI40
(lp3624
F1.0
asI41
(lp3625
F0.9951219512195122
asI42
(lp3626
F0.9951219512195122
asI43
(lp3627
F1.0
asI44
(lp3628
F1.0
asI45
(lp3629
F1.0
asI46
(lp3630
F1.0
asI47
(lp3631
F1.0
asI48
(lp3632
F1.0
asI49
(lp3633
F1.0
asI50
(lp3634
F0.9951219512195122
asI51
(lp3635
F0.9951219512195122
asI52
(lp3636
F1.0
asI53
(lp3637
F1.0
asI54
(lp3638
F1.0
asI55
(lp3639
F0.9951219512195122
asI56
(lp3640
F1.0
asI57
(lp3641
F1.0
asI58
(lp3642
F1.0
asI59
(lp3643
F0.9902439024390244
asI60
(lp3644
F1.0
asI61
(lp3645
F1.0
asI62
(lp3646
F0.9951219512195122
asI63
(lp3647
F1.0
asI64
(lp3648
F0.9951219512195122
asI65
(lp3649
F0.9951219512195122
asI66
(lp3650
F0.9853658536585366
asI67
(lp3651
F1.0
asI68
(lp3652
F0.9951219512195122
asI69
(lp3653
F1.0
asI70
(lp3654
F1.0
asI71
(lp3655
F1.0
asI72
(lp3656
F0.9902439024390244
asI73
(lp3657
F0.9951219512195122
asI74
(lp3658
F1.0
asI75
(lp3659
F1.0
asI76
(lp3660
F0.01951219512195122
asI77
(lp3661
F1.0
asI78
(lp3662
F0.00975609756097561
asI79
(lp3663
F1.0
asI80
(lp3664
F0.9951219512195122
asI81
(lp3665
F0.01951219512195122
asI82
(lp3666
F1.0
asI83
(lp3667
F1.0
asI84
(lp3668
F1.0
asI85
(lp3669
F0.9951219512195122
asI86
(lp3670
F1.0
asI87
(lp3671
F1.0
asI88
(lp3672
F1.0
asI89
(lp3673
F1.0
asI90
(lp3674
F0.9951219512195122
asI91
(lp3675
F1.0
asI92
(lp3676
F0.9951219512195122
asI93
(lp3677
F1.0
asI94
(lp3678
F0.9951219512195122
asI95
(lp3679
F1.0
asI96
(lp3680
F1.0
asI97
(lp3681
F0.9951219512195122
asI98
(lp3682
F1.0
asI99
(lp3683
F0.9902439024390244
asI100
(lp3684
F0.9951219512195122
asI101
(lp3685
F1.0
asI102
(lp3686
F0.9951219512195122
asI103
(lp3687
F1.0
asI104
(lp3688
F1.0
asI105
(lp3689
F1.0
asI106
(lp3690
F1.0
asI107
(lp3691
F1.0
asI108
(lp3692
F0.024390243902439025
asI109
(lp3693
F1.0
asI110
(lp3694
F0.9902439024390244
asI111
(lp3695
F1.0
asI112
(lp3696
F1.0
asI113
(lp3697
F0.004878048780487805
asI114
(lp3698
F0.00975609756097561
asI115
(lp3699
F1.0
asI116
(lp3700
F0.024390243902439025
asI117
(lp3701
F1.0
asI118
(lp3702
F0.9951219512195122
asI119
(lp3703
F1.0
asI120
(lp3704
F1.0
asI121
(lp3705
F0.00975609756097561
asI122
(lp3706
F0.004878048780487805
asI123
(lp3707
F1.0
asI124
(lp3708
F0.9902439024390244
asI125
(lp3709
F0.014634146341463415
asI126
(lp3710
F1.0
asI127
(lp3711
F0.00975609756097561
asI128
(lp3712
F0.9902439024390244
asI129
(lp3713
F0.004878048780487805
asI130
(lp3714
F0.014634146341463415
asI131
(lp3715
F1.0
asI132
(lp3716
F1.0
asI133
(lp3717
F0.9951219512195122
asI134
(lp3718
F0.004878048780487805
asI135
(lp3719
F0.004878048780487805
asI136
(lp3720
F0.00975609756097561
asI137
(lp3721
F1.0
asI138
(lp3722
F0.9951219512195122
asI139
(lp3723
F0.9951219512195122
asI140
(lp3724
F1.0
asI141
(lp3725
F0.014634146341463415
asI142
(lp3726
F1.0
asI143
(lp3727
F1.0
asI144
(lp3728
F0.00975609756097561
asI145
(lp3729
F0.9951219512195122
asI146
(lp3730
F0.004878048780487805
asI147
(lp3731
F0.9951219512195122
asI148
(lp3732
F0.004878048780487805
asI149
(lp3733
F0.004878048780487805
asI150
(lp3734
F0.014634146341463415
asI151
(lp3735
F0.004878048780487805
asI152
(lp3736
F0.004878048780487805
asI153
(lp3737
F1.0
asI154
(lp3738
F0.004878048780487805
asI155
(lp3739
F0.02926829268292683
asI156
(lp3740
F0.00975609756097561
asI157
(lp3741
F0.004878048780487805
asI158
(lp3742
F0.004878048780487805
asI159
(lp3743
F0.004878048780487805
asI160
(lp3744
F1.0
asI161
(lp3745
F0.004878048780487805
asI162
(lp3746
F0.9951219512195122
asI163
(lp3747
F0.9951219512195122
asI164
(lp3748
F0.014634146341463415
asI165
(lp3749
F0.004878048780487805
asI166
(lp3750
F0.004878048780487805
asI167
(lp3751
F1.0
asI168
(lp3752
F0.004878048780487805
asI169
(lp3753
F0.004878048780487805
asI170
(lp3754
F0.00975609756097561
asI171
(lp3755
F0.004878048780487805
asI172
(lp3756
F0.9853658536585366
asI173
(lp3757
F0.004878048780487805
asI174
(lp3758
F0.004878048780487805
asI175
(lp3759
F0.004878048780487805
asI176
(lp3760
F0.004878048780487805
asI177
(lp3761
F0.9951219512195122
asI178
(lp3762
F1.0
asI179
(lp3763
F0.004878048780487805
asI180
(lp3764
F0.004878048780487805
asI181
(lp3765
F0.00975609756097561
asI182
(lp3766
F0.004878048780487805
asI183
(lp3767
F0.004878048780487805
asI184
(lp3768
F0.004878048780487805
asI185
(lp3769
F0.004878048780487805
asI186
(lp3770
F0.004878048780487805
asI187
(lp3771
F0.004878048780487805
asI188
(lp3772
F0.004878048780487805
asI189
(lp3773
F1.0
asI190
(lp3774
F0.9951219512195122
asI191
(lp3775
F0.004878048780487805
asI192
(lp3776
F0.004878048780487805
asI193
(lp3777
F0.00975609756097561
asI194
(lp3778
F0.004878048780487805
asI195
(lp3779
F0.004878048780487805
asI196
(lp3780
F0.004878048780487805
asI197
(lp3781
F0.004878048780487805
asI198
(lp3782
F0.004878048780487805
asI199
(lp3783
F0.004878048780487805
asI200
(lp3784
F0.004878048780487805
asI201
(lp3785
F0.004878048780487805
asI202
(lp3786
F0.004878048780487805
asI203
(lp3787
F0.004878048780487805
asI204
(lp3788
F0.004878048780487805
asI205
(lp3789
F0.004878048780487805
asI206
(lp3790
F0.0
assg1491
g13
(g14
tp3791
Rp3792
I1
(lp3793
F0.9853658536585366
asI2
(lp3794
F0.9853658536585366
asI3
(lp3795
F0.9707317073170731
asI4
(lp3796
F0.975609756097561
asI5
(lp3797
F0.975609756097561
asI6
(lp3798
F0.9609756097560975
asI7
(lp3799
F0.9560975609756097
asI8
(lp3800
F0.9707317073170731
asI9
(lp3801
F0.9804878048780488
asI10
(lp3802
F0.9658536585365853
asI11
(lp3803
F0.9707317073170731
asI12
(lp3804
F0.9804878048780488
asI13
(lp3805
F0.9707317073170731
asI14
(lp3806
F0.9560975609756097
asI15
(lp3807
F0.9609756097560975
asI16
(lp3808
F0.9853658536585366
asI17
(lp3809
F0.9902439024390244
asI18
(lp3810
F0.9707317073170731
asI19
(lp3811
F0.9658536585365853
asI20
(lp3812
F0.9707317073170731
asI21
(lp3813
F0.9804878048780488
asI22
(lp3814
F0.975609756097561
asI23
(lp3815
F0.9707317073170731
asI24
(lp3816
F0.9512195121951219
asI25
(lp3817
F0.9658536585365853
asI26
(lp3818
F0.975609756097561
asI27
(lp3819
F0.9804878048780488
asI28
(lp3820
F0.9853658536585366
asI29
(lp3821
F0.9804878048780488
asI30
(lp3822
F0.9707317073170731
asI31
(lp3823
F0.9853658536585366
asI32
(lp3824
F0.9707317073170731
asI33
(lp3825
F0.9707317073170731
asI34
(lp3826
F0.975609756097561
asI35
(lp3827
F0.975609756097561
asI36
(lp3828
F0.9658536585365853
asI37
(lp3829
F0.9853658536585366
asI38
(lp3830
F0.9365853658536586
asI39
(lp3831
F0.975609756097561
asI40
(lp3832
F0.9609756097560975
asI41
(lp3833
F0.9853658536585366
asI42
(lp3834
F0.9804878048780488
asI43
(lp3835
F0.9512195121951219
asI44
(lp3836
F0.9658536585365853
asI45
(lp3837
F0.9902439024390244
asI46
(lp3838
F0.975609756097561
asI47
(lp3839
F0.9804878048780488
asI48
(lp3840
F0.9658536585365853
asI49
(lp3841
F0.9609756097560975
asI50
(lp3842
F0.9658536585365853
asI51
(lp3843
F0.9951219512195122
asI52
(lp3844
F0.9853658536585366
asI53
(lp3845
F0.00975609756097561
asI54
(lp3846
F0.9804878048780488
asI55
(lp3847
F0.9853658536585366
asI56
(lp3848
F0.9560975609756097
asI57
(lp3849
F0.975609756097561
asI58
(lp3850
F0.00975609756097561
asI59
(lp3851
F0.00975609756097561
asI60
(lp3852
F0.975609756097561
asI61
(lp3853
F0.9707317073170731
asI62
(lp3854
F0.9658536585365853
asI63
(lp3855
F0.9853658536585366
asI64
(lp3856
F0.014634146341463415
asI65
(lp3857
F0.975609756097561
asI66
(lp3858
F0.024390243902439025
asI67
(lp3859
F0.975609756097561
asI68
(lp3860
F0.03902439024390244
asI69
(lp3861
F0.975609756097561
asI70
(lp3862
F0.024390243902439025
asI71
(lp3863
F0.9560975609756097
asI72
(lp3864
F0.9804878048780488
asI73
(lp3865
F0.03414634146341464
asI74
(lp3866
F0.9707317073170731
asI75
(lp3867
F0.9658536585365853
asI76
(lp3868
F0.02926829268292683
asI77
(lp3869
F0.975609756097561
asI78
(lp3870
F0.014634146341463415
asI79
(lp3871
F0.9804878048780488
asI80
(lp3872
F0.975609756097561
asI81
(lp3873
F0.004878048780487805
asI82
(lp3874
F0.00975609756097561
asI83
(lp3875
F0.9609756097560975
asI84
(lp3876
F0.9853658536585366
asI85
(lp3877
F0.9560975609756097
asI86
(lp3878
F0.00975609756097561
asI87
(lp3879
F0.014634146341463415
asI88
(lp3880
F0.9707317073170731
asI89
(lp3881
F0.9853658536585366
asI90
(lp3882
F0.9658536585365853
asI91
(lp3883
F0.9902439024390244
asI92
(lp3884
F1.0
asI93
(lp3885
F0.9902439024390244
asI94
(lp3886
F0.014634146341463415
asI95
(lp3887
F0.9804878048780488
asI96
(lp3888
F0.00975609756097561
asI97
(lp3889
F0.9707317073170731
asI98
(lp3890
F0.9902439024390244
asI99
(lp3891
F0.9658536585365853
asI100
(lp3892
F0.04390243902439024
asI101
(lp3893
F0.014634146341463415
asI102
(lp3894
F0.9707317073170731
asI103
(lp3895
F0.9804878048780488
asI104
(lp3896
F0.004878048780487805
asI105
(lp3897
F0.975609756097561
asI106
(lp3898
F0.00975609756097561
asI107
(lp3899
F0.004878048780487805
asI108
(lp3900
F0.00975609756097561
asI109
(lp3901
F0.08780487804878048
asI110
(lp3902
F0.9804878048780488
asI111
(lp3903
F0.9804878048780488
asI112
(lp3904
F0.975609756097561
asI113
(lp3905
F0.9707317073170731
asI114
(lp3906
F0.00975609756097561
asI115
(lp3907
F0.03414634146341464
asI116
(lp3908
F0.004878048780487805
asI117
(lp3909
F0.014634146341463415
asI118
(lp3910
F0.014634146341463415
asI119
(lp3911
F0.004878048780487805
asI120
(lp3912
F0.9804878048780488
asI121
(lp3913
F0.004878048780487805
asI122
(lp3914
F0.004878048780487805
asI123
(lp3915
F0.02926829268292683
asI124
(lp3916
F0.9707317073170731
asI125
(lp3917
F0.014634146341463415
asI126
(lp3918
F0.9658536585365853
asI127
(lp3919
F0.014634146341463415
asI128
(lp3920
F0.014634146341463415
asI129
(lp3921
F0.01951219512195122
asI130
(lp3922
F0.014634146341463415
asI131
(lp3923
F0.004878048780487805
asI132
(lp3924
F0.004878048780487805
asI133
(lp3925
F0.00975609756097561
asI134
(lp3926
F0.00975609756097561
asI135
(lp3927
F0.004878048780487805
asI136
(lp3928
F0.00975609756097561
asI137
(lp3929
F0.014634146341463415
asI138
(lp3930
F0.004878048780487805
asI139
(lp3931
F0.024390243902439025
asI140
(lp3932
F0.9658536585365853
asI141
(lp3933
F0.014634146341463415
asI142
(lp3934
F0.9804878048780488
asI143
(lp3935
F0.014634146341463415
asI144
(lp3936
F0.014634146341463415
asI145
(lp3937
F0.9853658536585366
asI146
(lp3938
F0.00975609756097561
asI147
(lp3939
F0.975609756097561
asI148
(lp3940
F0.1024390243902439
asI149
(lp3941
F0.004878048780487805
asI150
(lp3942
F0.004878048780487805
asI151
(lp3943
F0.00975609756097561
asI152
(lp3944
F0.014634146341463415
asI153
(lp3945
F0.975609756097561
asI154
(lp3946
F0.004878048780487805
asI155
(lp3947
F0.014634146341463415
asI156
(lp3948
F0.004878048780487805
asI157
(lp3949
F0.004878048780487805
asI158
(lp3950
F0.004878048780487805
asI159
(lp3951
F0.004878048780487805
asI160
(lp3952
F0.024390243902439025
asI161
(lp3953
F0.004878048780487805
asI162
(lp3954
F0.004878048780487805
asI163
(lp3955
F0.07317073170731707
asI164
(lp3956
F0.00975609756097561
asI165
(lp3957
F0.004878048780487805
asI166
(lp3958
F0.9853658536585366
asI167
(lp3959
F0.9853658536585366
asI168
(lp3960
F0.004878048780487805
asI169
(lp3961
F0.004878048780487805
asI170
(lp3962
F0.004878048780487805
asI171
(lp3963
F0.004878048780487805
asI172
(lp3964
F0.004878048780487805
asI173
(lp3965
F0.00975609756097561
asI174
(lp3966
F0.004878048780487805
asI175
(lp3967
F0.004878048780487805
asI176
(lp3968
F0.00975609756097561
asI177
(lp3969
F0.004878048780487805
asI178
(lp3970
F0.004878048780487805
asI179
(lp3971
F0.004878048780487805
asI180
(lp3972
F0.004878048780487805
asI181
(lp3973
F0.9658536585365853
asI182
(lp3974
F0.004878048780487805
asI183
(lp3975
F0.00975609756097561
asI184
(lp3976
F0.004878048780487805
asI185
(lp3977
F0.004878048780487805
asI186
(lp3978
F0.004878048780487805
asI187
(lp3979
F0.004878048780487805
asI188
(lp3980
F0.11707317073170732
asI189
(lp3981
F0.00975609756097561
asI190
(lp3982
F0.004878048780487805
asI191
(lp3983
F0.00975609756097561
asI192
(lp3984
F0.004878048780487805
asI193
(lp3985
F0.004878048780487805
asI194
(lp3986
F0.004878048780487805
asI195
(lp3987
F0.004878048780487805
asI196
(lp3988
F0.004878048780487805
asI197
(lp3989
F0.004878048780487805
asI198
(lp3990
F0.004878048780487805
asI199
(lp3991
F0.004878048780487805
asI200
(lp3992
F0.004878048780487805
asI201
(lp3993
F0.004878048780487805
asI202
(lp3994
F0.004878048780487805
asI203
(lp3995
F0.004878048780487805
asI204
(lp3996
F0.004878048780487805
asI205
(lp3997
F0.004878048780487805
asI206
(lp3998
F0.0
assg1702
g13
(g14
tp3999
Rp4000
I1
(lp4001
F0.7365853658536585
asI2
(lp4002
F0.7853658536585366
asI3
(lp4003
F0.7463414634146341
asI4
(lp4004
F0.03414634146341464
asI5
(lp4005
F0.7365853658536585
asI6
(lp4006
F0.8146341463414634
asI7
(lp4007
F0.8195121951219512
asI8
(lp4008
F0.7560975609756098
asI9
(lp4009
F0.7317073170731707
asI10
(lp4010
F0.7219512195121951
asI11
(lp4011
F0.7463414634146341
asI12
(lp4012
F0.7609756097560976
asI13
(lp4013
F0.7707317073170732
asI14
(lp4014
F0.01951219512195122
asI15
(lp4015
F0.7902439024390244
asI16
(lp4016
F0.7121951219512195
asI17
(lp4017
F0.6829268292682927
asI18
(lp4018
F0.8146341463414634
asI19
(lp4019
F0.16585365853658537
asI20
(lp4020
F0.8
asI21
(lp4021
F0.7414634146341463
asI22
(lp4022
F0.775609756097561
asI23
(lp4023
F0.7804878048780488
asI24
(lp4024
F0.751219512195122
asI25
(lp4025
F0.7463414634146341
asI26
(lp4026
F0.004878048780487805
asI27
(lp4027
F0.28292682926829266
asI28
(lp4028
F0.751219512195122
asI29
(lp4029
F0.014634146341463415
asI30
(lp4030
F0.18048780487804877
asI31
(lp4031
F0.7853658536585366
asI32
(lp4032
F0.05365853658536585
asI33
(lp4033
F0.01951219512195122
asI34
(lp4034
F0.7463414634146341
asI35
(lp4035
F0.7560975609756098
asI36
(lp4036
F0.7853658536585366
asI37
(lp4037
F0.8048780487804879
asI38
(lp4038
F0.014634146341463415
asI39
(lp4039
F0.7658536585365854
asI40
(lp4040
F0.04390243902439024
asI41
(lp4041
F0.751219512195122
asI42
(lp4042
F0.03902439024390244
asI43
(lp4043
F0.7707317073170732
asI44
(lp4044
F0.8
asI45
(lp4045
F0.00975609756097561
asI46
(lp4046
F0.08292682926829269
asI47
(lp4047
F0.004878048780487805
asI48
(lp4048
F0.775609756097561
asI49
(lp4049
F0.03414634146341464
asI50
(lp4050
F0.004878048780487805
asI51
(lp4051
F0.01951219512195122
asI52
(lp4052
F0.05365853658536585
asI53
(lp4053
F0.004878048780487805
asI54
(lp4054
F0.751219512195122
asI55
(lp4055
F0.8048780487804879
asI56
(lp4056
F0.7804878048780488
asI57
(lp4057
F0.014634146341463415
asI58
(lp4058
F0.004878048780487805
asI59
(lp4059
F0.014634146341463415
asI60
(lp4060
F0.014634146341463415
asI61
(lp4061
F0.004878048780487805
asI62
(lp4062
F0.03414634146341464
asI63
(lp4063
F0.05365853658536585
asI64
(lp4064
F0.004878048780487805
asI65
(lp4065
F0.00975609756097561
asI66
(lp4066
F0.004878048780487805
asI67
(lp4067
F0.004878048780487805
asI68
(lp4068
F0.12195121951219512
asI69
(lp4069
F0.00975609756097561
asI70
(lp4070
F0.01951219512195122
asI71
(lp4071
F0.00975609756097561
asI72
(lp4072
F0.01951219512195122
asI73
(lp4073
F0.004878048780487805
asI74
(lp4074
F0.00975609756097561
asI75
(lp4075
F0.7414634146341463
asI76
(lp4076
F0.004878048780487805
asI77
(lp4077
F0.004878048780487805
asI78
(lp4078
F0.004878048780487805
asI79
(lp4079
F0.004878048780487805
asI80
(lp4080
F0.01951219512195122
asI81
(lp4081
F0.01951219512195122
asI82
(lp4082
F0.00975609756097561
asI83
(lp4083
F0.00975609756097561
asI84
(lp4084
F0.014634146341463415
asI85
(lp4085
F0.01951219512195122
asI86
(lp4086
F0.00975609756097561
asI87
(lp4087
F0.02926829268292683
asI88
(lp4088
F0.7804878048780488
asI89
(lp4089
F0.004878048780487805
asI90
(lp4090
F0.00975609756097561
asI91
(lp4091
F0.004878048780487805
asI92
(lp4092
F0.004878048780487805
asI93
(lp4093
F0.01951219512195122
asI94
(lp4094
F0.00975609756097561
asI95
(lp4095
F0.004878048780487805
asI96
(lp4096
F0.004878048780487805
asI97
(lp4097
F0.014634146341463415
asI98
(lp4098
F0.00975609756097561
asI99
(lp4099
F0.014634146341463415
asI100
(lp4100
F0.00975609756097561
asI101
(lp4101
F0.004878048780487805
asI102
(lp4102
F0.004878048780487805
asI103
(lp4103
F0.06341463414634146
asI104
(lp4104
F0.004878048780487805
asI105
(lp4105
F0.00975609756097561
asI106
(lp4106
F0.004878048780487805
asI107
(lp4107
F0.004878048780487805
asI108
(lp4108
F0.004878048780487805
asI109
(lp4109
F0.004878048780487805
asI110
(lp4110
F0.004878048780487805
asI111
(lp4111
F0.00975609756097561
asI112
(lp4112
F0.00975609756097561
asI113
(lp4113
F0.004878048780487805
asI114
(lp4114
F0.004878048780487805
asI115
(lp4115
F0.004878048780487805
asI116
(lp4116
F0.004878048780487805
asI117
(lp4117
F0.00975609756097561
asI118
(lp4118
F0.02926829268292683
asI119
(lp4119
F0.004878048780487805
asI120
(lp4120
F0.01951219512195122
asI121
(lp4121
F0.004878048780487805
asI122
(lp4122
F0.004878048780487805
asI123
(lp4123
F0.004878048780487805
asI124
(lp4124
F0.004878048780487805
asI125
(lp4125
F0.02926829268292683
asI126
(lp4126
F0.824390243902439
asI127
(lp4127
F0.00975609756097561
asI128
(lp4128
F0.014634146341463415
asI129
(lp4129
F0.004878048780487805
asI130
(lp4130
F0.00975609756097561
asI131
(lp4131
F0.004878048780487805
asI132
(lp4132
F0.004878048780487805
asI133
(lp4133
F0.00975609756097561
asI134
(lp4134
F0.004878048780487805
asI135
(lp4135
F0.004878048780487805
asI136
(lp4136
F0.7902439024390244
asI137
(lp4137
F0.004878048780487805
asI138
(lp4138
F0.004878048780487805
asI139
(lp4139
F0.004878048780487805
asI140
(lp4140
F0.004878048780487805
asI141
(lp4141
F0.004878048780487805
asI142
(lp4142
F0.004878048780487805
asI143
(lp4143
F0.004878048780487805
asI144
(lp4144
F0.00975609756097561
asI145
(lp4145
F0.004878048780487805
asI146
(lp4146
F0.004878048780487805
asI147
(lp4147
F0.004878048780487805
asI148
(lp4148
F0.004878048780487805
asI149
(lp4149
F0.004878048780487805
asI150
(lp4150
F0.00975609756097561
asI151
(lp4151
F0.004878048780487805
asI152
(lp4152
F0.004878048780487805
asI153
(lp4153
F0.01951219512195122
asI154
(lp4154
F0.004878048780487805
asI155
(lp4155
F0.004878048780487805
asI156
(lp4156
F0.004878048780487805
asI157
(lp4157
F0.004878048780487805
asI158
(lp4158
F0.004878048780487805
asI159
(lp4159
F0.004878048780487805
asI160
(lp4160
F0.004878048780487805
asI161
(lp4161
F0.004878048780487805
asI162
(lp4162
F0.004878048780487805
asI163
(lp4163
F0.004878048780487805
asI164
(lp4164
F0.004878048780487805
asI165
(lp4165
F0.004878048780487805
asI166
(lp4166
F0.004878048780487805
asI167
(lp4167
F0.004878048780487805
asI168
(lp4168
F0.014634146341463415
asI169
(lp4169
F0.004878048780487805
asI170
(lp4170
F0.004878048780487805
asI171
(lp4171
F0.00975609756097561
asI172
(lp4172
F0.004878048780487805
asI173
(lp4173
F0.004878048780487805
asI174
(lp4174
F0.004878048780487805
asI175
(lp4175
F0.004878048780487805
asI176
(lp4176
F0.004878048780487805
asI177
(lp4177
F0.004878048780487805
asI178
(lp4178
F0.004878048780487805
asI179
(lp4179
F0.004878048780487805
asI180
(lp4180
F0.004878048780487805
asI181
(lp4181
F0.004878048780487805
asI182
(lp4182
F0.004878048780487805
asI183
(lp4183
F0.004878048780487805
asI184
(lp4184
F0.004878048780487805
asI185
(lp4185
F0.004878048780487805
asI186
(lp4186
F0.004878048780487805
asI187
(lp4187
F0.004878048780487805
asI188
(lp4188
F0.004878048780487805
asI189
(lp4189
F0.004878048780487805
asI190
(lp4190
F0.03902439024390244
asI191
(lp4191
F0.004878048780487805
asI192
(lp4192
F0.00975609756097561
asI193
(lp4193
F0.004878048780487805
asI194
(lp4194
F0.004878048780487805
asI195
(lp4195
F0.004878048780487805
asI196
(lp4196
F0.004878048780487805
asI197
(lp4197
F0.004878048780487805
asI198
(lp4198
F0.004878048780487805
asI199
(lp4199
F0.004878048780487805
asI200
(lp4200
F0.004878048780487805
asI201
(lp4201
F0.004878048780487805
asI202
(lp4202
F0.004878048780487805
asI203
(lp4203
F0.004878048780487805
asI204
(lp4204
F0.004878048780487805
asI205
(lp4205
F0.004878048780487805
asI206
(lp4206
F0.0
assg1913
g13
(g14
tp4207
Rp4208
I1
(lp4209
F1.0
asI2
(lp4210
F1.0
asI3
(lp4211
F1.0
asI4
(lp4212
F1.0
asI5
(lp4213
F1.0
asI6
(lp4214
F1.0
asI7
(lp4215
F1.0
asI8
(lp4216
F1.0
asI9
(lp4217
F1.0
asI10
(lp4218
F1.0
asI11
(lp4219
F1.0
asI12
(lp4220
F1.0
asI13
(lp4221
F1.0
asI14
(lp4222
F1.0
asI15
(lp4223
F1.0
asI16
(lp4224
F1.0
asI17
(lp4225
F1.0
asI18
(lp4226
F1.0
asI19
(lp4227
F1.0
asI20
(lp4228
F1.0
asI21
(lp4229
F1.0
asI22
(lp4230
F1.0
asI23
(lp4231
F1.0
asI24
(lp4232
F1.0
asI25
(lp4233
F1.0
asI26
(lp4234
F1.0
asI27
(lp4235
F1.0
asI28
(lp4236
F1.0
asI29
(lp4237
F1.0
asI30
(lp4238
F1.0
asI31
(lp4239
F1.0
asI32
(lp4240
F1.0
asI33
(lp4241
F1.0
asI34
(lp4242
F1.0
asI35
(lp4243
F1.0
asI36
(lp4244
F1.0
asI37
(lp4245
F1.0
asI38
(lp4246
F1.0
asI39
(lp4247
F1.0
asI40
(lp4248
F1.0
asI41
(lp4249
F1.0
asI42
(lp4250
F1.0
asI43
(lp4251
F1.0
asI44
(lp4252
F1.0
asI45
(lp4253
F1.0
asI46
(lp4254
F1.0
asI47
(lp4255
F1.0
asI48
(lp4256
F1.0
asI49
(lp4257
F1.0
asI50
(lp4258
F1.0
asI51
(lp4259
F1.0
asI52
(lp4260
F1.0
asI53
(lp4261
F1.0
asI54
(lp4262
F1.0
asI55
(lp4263
F1.0
asI56
(lp4264
F1.0
asI57
(lp4265
F1.0
asI58
(lp4266
F1.0
asI59
(lp4267
F1.0
asI60
(lp4268
F1.0
asI61
(lp4269
F1.0
asI62
(lp4270
F1.0
asI63
(lp4271
F1.0
asI64
(lp4272
F1.0
asI65
(lp4273
F1.0
asI66
(lp4274
F1.0
asI67
(lp4275
F1.0
asI68
(lp4276
F1.0
asI69
(lp4277
F1.0
asI70
(lp4278
F1.0
asI71
(lp4279
F1.0
asI72
(lp4280
F1.0
asI73
(lp4281
F1.0
asI74
(lp4282
F0.9951219512195122
asI75
(lp4283
F1.0
asI76
(lp4284
F1.0
asI77
(lp4285
F1.0
asI78
(lp4286
F1.0
asI79
(lp4287
F1.0
asI80
(lp4288
F1.0
asI81
(lp4289
F1.0
asI82
(lp4290
F1.0
asI83
(lp4291
F1.0
asI84
(lp4292
F1.0
asI85
(lp4293
F1.0
asI86
(lp4294
F1.0
asI87
(lp4295
F1.0
asI88
(lp4296
F1.0
asI89
(lp4297
F1.0
asI90
(lp4298
F1.0
asI91
(lp4299
F1.0
asI92
(lp4300
F1.0
asI93
(lp4301
F1.0
asI94
(lp4302
F1.0
asI95
(lp4303
F1.0
asI96
(lp4304
F1.0
asI97
(lp4305
F1.0
asI98
(lp4306
F1.0
asI99
(lp4307
F1.0
asI100
(lp4308
F1.0
asI101
(lp4309
F1.0
asI102
(lp4310
F1.0
asI103
(lp4311
F1.0
asI104
(lp4312
F1.0
asI105
(lp4313
F1.0
asI106
(lp4314
F1.0
asI107
(lp4315
F1.0
asI108
(lp4316
F1.0
asI109
(lp4317
F1.0
asI110
(lp4318
F1.0
asI111
(lp4319
F1.0
asI112
(lp4320
F1.0
asI113
(lp4321
F1.0
asI114
(lp4322
F1.0
asI115
(lp4323
F1.0
asI116
(lp4324
F1.0
asI117
(lp4325
F1.0
asI118
(lp4326
F1.0
asI119
(lp4327
F1.0
asI120
(lp4328
F1.0
asI121
(lp4329
F0.014634146341463415
asI122
(lp4330
F0.004878048780487805
asI123
(lp4331
F1.0
asI124
(lp4332
F1.0
asI125
(lp4333
F1.0
asI126
(lp4334
F1.0
asI127
(lp4335
F1.0
asI128
(lp4336
F1.0
asI129
(lp4337
F1.0
asI130
(lp4338
F1.0
asI131
(lp4339
F1.0
asI132
(lp4340
F1.0
asI133
(lp4341
F0.014634146341463415
asI134
(lp4342
F1.0
asI135
(lp4343
F0.004878048780487805
asI136
(lp4344
F1.0
asI137
(lp4345
F1.0
asI138
(lp4346
F1.0
asI139
(lp4347
F1.0
asI140
(lp4348
F1.0
asI141
(lp4349
F1.0
asI142
(lp4350
F0.00975609756097561
asI143
(lp4351
F1.0
asI144
(lp4352
F0.014634146341463415
asI145
(lp4353
F1.0
asI146
(lp4354
F1.0
asI147
(lp4355
F1.0
asI148
(lp4356
F0.004878048780487805
asI149
(lp4357
F0.004878048780487805
asI150
(lp4358
F0.01951219512195122
asI151
(lp4359
F1.0
asI152
(lp4360
F1.0
asI153
(lp4361
F1.0
asI154
(lp4362
F1.0
asI155
(lp4363
F1.0
asI156
(lp4364
F1.0
asI157
(lp4365
F0.004878048780487805
asI158
(lp4366
F0.004878048780487805
asI159
(lp4367
F0.004878048780487805
asI160
(lp4368
F1.0
asI161
(lp4369
F0.004878048780487805
asI162
(lp4370
F0.004878048780487805
asI163
(lp4371
F1.0
asI164
(lp4372
F1.0
asI165
(lp4373
F0.004878048780487805
asI166
(lp4374
F1.0
asI167
(lp4375
F1.0
asI168
(lp4376
F1.0
asI169
(lp4377
F0.004878048780487805
asI170
(lp4378
F0.00975609756097561
asI171
(lp4379
F1.0
asI172
(lp4380
F1.0
asI173
(lp4381
F0.00975609756097561
asI174
(lp4382
F0.00975609756097561
asI175
(lp4383
F0.004878048780487805
asI176
(lp4384
F0.00975609756097561
asI177
(lp4385
F1.0
asI178
(lp4386
F1.0
asI179
(lp4387
F0.004878048780487805
asI180
(lp4388
F0.004878048780487805
asI181
(lp4389
F1.0
asI182
(lp4390
F0.004878048780487805
asI183
(lp4391
F1.0
asI184
(lp4392
F0.004878048780487805
asI185
(lp4393
F0.004878048780487805
asI186
(lp4394
F0.004878048780487805
asI187
(lp4395
F0.004878048780487805
asI188
(lp4396
F1.0
asI189
(lp4397
F1.0
asI190
(lp4398
F1.0
asI191
(lp4399
F0.00975609756097561
asI192
(lp4400
F0.00975609756097561
asI193
(lp4401
F0.00975609756097561
asI194
(lp4402
F0.004878048780487805
asI195
(lp4403
F0.004878048780487805
asI196
(lp4404
F0.004878048780487805
asI197
(lp4405
F0.004878048780487805
asI198
(lp4406
F0.004878048780487805
asI199
(lp4407
F0.004878048780487805
asI200
(lp4408
F0.004878048780487805
asI201
(lp4409
F0.004878048780487805
asI202
(lp4410
F0.004878048780487805
asI203
(lp4411
F0.004878048780487805
asI204
(lp4412
F0.004878048780487805
asI205
(lp4413
F0.004878048780487805
asI206
(lp4414
F0.0
assg2124
g13
(g14
tp4415
Rp4416
I1
(lp4417
F1.0
asI2
(lp4418
F1.0
asI3
(lp4419
F0.9951219512195122
asI4
(lp4420
F1.0
asI5
(lp4421
F1.0
asI6
(lp4422
F1.0
asI7
(lp4423
F1.0
asI8
(lp4424
F1.0
asI9
(lp4425
F1.0
asI10
(lp4426
F1.0
asI11
(lp4427
F0.9951219512195122
asI12
(lp4428
F0.9951219512195122
asI13
(lp4429
F1.0
asI14
(lp4430
F0.9951219512195122
asI15
(lp4431
F0.9951219512195122
asI16
(lp4432
F1.0
asI17
(lp4433
F1.0
asI18
(lp4434
F0.9951219512195122
asI19
(lp4435
F0.9951219512195122
asI20
(lp4436
F1.0
asI21
(lp4437
F1.0
asI22
(lp4438
F1.0
asI23
(lp4439
F1.0
asI24
(lp4440
F1.0
asI25
(lp4441
F1.0
asI26
(lp4442
F1.0
asI27
(lp4443
F1.0
asI28
(lp4444
F1.0
asI29
(lp4445
F1.0
asI30
(lp4446
F1.0
asI31
(lp4447
F1.0
asI32
(lp4448
F1.0
asI33
(lp4449
F1.0
asI34
(lp4450
F1.0
asI35
(lp4451
F1.0
asI36
(lp4452
F1.0
asI37
(lp4453
F1.0
asI38
(lp4454
F1.0
asI39
(lp4455
F1.0
asI40
(lp4456
F1.0
asI41
(lp4457
F1.0
asI42
(lp4458
F1.0
asI43
(lp4459
F1.0
asI44
(lp4460
F1.0
asI45
(lp4461
F1.0
asI46
(lp4462
F1.0
asI47
(lp4463
F1.0
asI48
(lp4464
F1.0
asI49
(lp4465
F1.0
asI50
(lp4466
F1.0
asI51
(lp4467
F1.0
asI52
(lp4468
F1.0
asI53
(lp4469
F1.0
asI54
(lp4470
F1.0
asI55
(lp4471
F1.0
asI56
(lp4472
F1.0
asI57
(lp4473
F1.0
asI58
(lp4474
F1.0
asI59
(lp4475
F1.0
asI60
(lp4476
F1.0
asI61
(lp4477
F1.0
asI62
(lp4478
F1.0
asI63
(lp4479
F1.0
asI64
(lp4480
F0.9902439024390244
asI65
(lp4481
F0.9951219512195122
asI66
(lp4482
F1.0
asI67
(lp4483
F1.0
asI68
(lp4484
F1.0
asI69
(lp4485
F1.0
asI70
(lp4486
F1.0
asI71
(lp4487
F1.0
asI72
(lp4488
F1.0
asI73
(lp4489
F1.0
asI74
(lp4490
F1.0
asI75
(lp4491
F1.0
asI76
(lp4492
F1.0
asI77
(lp4493
F1.0
asI78
(lp4494
F1.0
asI79
(lp4495
F0.00975609756097561
asI80
(lp4496
F1.0
asI81
(lp4497
F1.0
asI82
(lp4498
F0.9951219512195122
asI83
(lp4499
F1.0
asI84
(lp4500
F1.0
asI85
(lp4501
F1.0
asI86
(lp4502
F1.0
asI87
(lp4503
F1.0
asI88
(lp4504
F1.0
asI89
(lp4505
F1.0
asI90
(lp4506
F1.0
asI91
(lp4507
F1.0
asI92
(lp4508
F0.9951219512195122
asI93
(lp4509
F1.0
asI94
(lp4510
F1.0
asI95
(lp4511
F1.0
asI96
(lp4512
F1.0
asI97
(lp4513
F1.0
asI98
(lp4514
F1.0
asI99
(lp4515
F1.0
asI100
(lp4516
F1.0
asI101
(lp4517
F1.0
asI102
(lp4518
F1.0
asI103
(lp4519
F1.0
asI104
(lp4520
F1.0
asI105
(lp4521
F1.0
asI106
(lp4522
F0.9951219512195122
asI107
(lp4523
F1.0
asI108
(lp4524
F1.0
asI109
(lp4525
F1.0
asI110
(lp4526
F1.0
asI111
(lp4527
F1.0
asI112
(lp4528
F1.0
asI113
(lp4529
F0.004878048780487805
asI114
(lp4530
F1.0
asI115
(lp4531
F0.9951219512195122
asI116
(lp4532
F1.0
asI117
(lp4533
F1.0
asI118
(lp4534
F0.9951219512195122
asI119
(lp4535
F0.9951219512195122
asI120
(lp4536
F1.0
asI121
(lp4537
F0.014634146341463415
asI122
(lp4538
F0.004878048780487805
asI123
(lp4539
F1.0
asI124
(lp4540
F1.0
asI125
(lp4541
F1.0
asI126
(lp4542
F1.0
asI127
(lp4543
F1.0
asI128
(lp4544
F1.0
asI129
(lp4545
F1.0
asI130
(lp4546
F0.02926829268292683
asI131
(lp4547
F1.0
asI132
(lp4548
F0.9951219512195122
asI133
(lp4549
F1.0
asI134
(lp4550
F1.0
asI135
(lp4551
F0.004878048780487805
asI136
(lp4552
F0.9951219512195122
asI137
(lp4553
F0.014634146341463415
asI138
(lp4554
F1.0
asI139
(lp4555
F0.9951219512195122
asI140
(lp4556
F0.9951219512195122
asI141
(lp4557
F0.9951219512195122
asI142
(lp4558
F1.0
asI143
(lp4559
F0.9951219512195122
asI144
(lp4560
F0.004878048780487805
asI145
(lp4561
F0.014634146341463415
asI146
(lp4562
F0.00975609756097561
asI147
(lp4563
F1.0
asI148
(lp4564
F1.0
asI149
(lp4565
F0.004878048780487805
asI150
(lp4566
F1.0
asI151
(lp4567
F0.9951219512195122
asI152
(lp4568
F1.0
asI153
(lp4569
F1.0
asI154
(lp4570
F0.004878048780487805
asI155
(lp4571
F0.03414634146341464
asI156
(lp4572
F1.0
asI157
(lp4573
F0.004878048780487805
asI158
(lp4574
F0.004878048780487805
asI159
(lp4575
F0.004878048780487805
asI160
(lp4576
F1.0
asI161
(lp4577
F0.004878048780487805
asI162
(lp4578
F1.0
asI163
(lp4579
F1.0
asI164
(lp4580
F1.0
asI165
(lp4581
F0.004878048780487805
asI166
(lp4582
F1.0
asI167
(lp4583
F0.004878048780487805
asI168
(lp4584
F0.014634146341463415
asI169
(lp4585
F0.004878048780487805
asI170
(lp4586
F0.00975609756097561
asI171
(lp4587
F1.0
asI172
(lp4588
F0.9951219512195122
asI173
(lp4589
F0.004878048780487805
asI174
(lp4590
F0.004878048780487805
asI175
(lp4591
F0.004878048780487805
asI176
(lp4592
F0.00975609756097561
asI177
(lp4593
F0.9951219512195122
asI178
(lp4594
F0.00975609756097561
asI179
(lp4595
F0.004878048780487805
asI180
(lp4596
F0.004878048780487805
asI181
(lp4597
F0.00975609756097561
asI182
(lp4598
F0.004878048780487805
asI183
(lp4599
F0.004878048780487805
asI184
(lp4600
F0.004878048780487805
asI185
(lp4601
F0.004878048780487805
asI186
(lp4602
F0.004878048780487805
asI187
(lp4603
F0.00975609756097561
asI188
(lp4604
F1.0
asI189
(lp4605
F0.014634146341463415
asI190
(lp4606
F0.9951219512195122
asI191
(lp4607
F0.00975609756097561
asI192
(lp4608
F0.00975609756097561
asI193
(lp4609
F0.004878048780487805
asI194
(lp4610
F0.004878048780487805
asI195
(lp4611
F0.004878048780487805
asI196
(lp4612
F0.004878048780487805
asI197
(lp4613
F0.004878048780487805
asI198
(lp4614
F0.004878048780487805
asI199
(lp4615
F0.004878048780487805
asI200
(lp4616
F0.004878048780487805
asI201
(lp4617
F0.004878048780487805
asI202
(lp4618
F0.004878048780487805
asI203
(lp4619
F0.004878048780487805
asI204
(lp4620
F0.004878048780487805
asI205
(lp4621
F0.004878048780487805
asI206
(lp4622
F0.0
asss.