(dp0
S'length'
p1
(dp2
cnumpy.core.multiarray
scalar
p3
(cnumpy
dtype
p4
(S'f8'
p5
I0
I1
tp6
Rp7
(I3
S'<'
p8
NNNI-1
I-1
I0
tp9
bS'\x00\x00\x00\x00\x00\x00\x00\x00'
p10
tp11
Rp12
ccollections
defaultdict
p13
(c__builtin__
list
p14
tp15
Rp16
I1
(lp17
I1
asI2
(lp18
I1
asI3
(lp19
I1
asI4
(lp20
I1
asI5
(lp21
I1
asI6
(lp22
I1
asI7
(lp23
I1
asI8
(lp24
I1
asI9
(lp25
I1
asI10
(lp26
I1
asI11
(lp27
I1
asI12
(lp28
I1
asI13
(lp29
I1
asI14
(lp30
I1
asI15
(lp31
I1
asI16
(lp32
I1
asI17
(lp33
I1
asI18
(lp34
I1
asI19
(lp35
I1
asI20
(lp36
I1
asI21
(lp37
I1
asI22
(lp38
I1
asI23
(lp39
I1
asI24
(lp40
I1
asI25
(lp41
I1
asI26
(lp42
I1
asI27
(lp43
I1
asI28
(lp44
I1
asI29
(lp45
I1
asI30
(lp46
I1
asI31
(lp47
I1
asI32
(lp48
I1
asI33
(lp49
I1
asI34
(lp50
I1
asI35
(lp51
I1
asI36
(lp52
I1
asI37
(lp53
I1
asI38
(lp54
I1
asI39
(lp55
I1
asI40
(lp56
I1
asI41
(lp57
I1
asI42
(lp58
I1
asI43
(lp59
I1
asI44
(lp60
I1
asI45
(lp61
I1
asI46
(lp62
I1
asI47
(lp63
I1
asI48
(lp64
I1
asI49
(lp65
I1
asI50
(lp66
I1
asI51
(lp67
I1
asI52
(lp68
I1
asI53
(lp69
I1
asI54
(lp70
I1
asI55
(lp71
I1
asI56
(lp72
I1
asI57
(lp73
I1
asI58
(lp74
I1
asI59
(lp75
I1
asI60
(lp76
I1
asI61
(lp77
I1
asI62
(lp78
I1
asI63
(lp79
I1
asI64
(lp80
I1
asI65
(lp81
I1
asI66
(lp82
I1
asI67
(lp83
I1
asI68
(lp84
I1
asI69
(lp85
I1
asI70
(lp86
I1
asI71
(lp87
I1
asI72
(lp88
I1
asI73
(lp89
I1
asI74
(lp90
I1
asI75
(lp91
I1
asI76
(lp92
I1
asI77
(lp93
I1
asI78
(lp94
I1
asI79
(lp95
I1
asI80
(lp96
I1
asI81
(lp97
I1
asI82
(lp98
I1
asI83
(lp99
I1
asI84
(lp100
I1
asI85
(lp101
I1
asI86
(lp102
I1
asI87
(lp103
I1
asI88
(lp104
I1
asI89
(lp105
I1
asI90
(lp106
I1
asI91
(lp107
I1
asI92
(lp108
I1
asI93
(lp109
I1
asI94
(lp110
I1
asI95
(lp111
I1
asI96
(lp112
I1
asI97
(lp113
I1
asI98
(lp114
I1
asI99
(lp115
I1
asI100
(lp116
I1
asI101
(lp117
I1
asI102
(lp118
I1
asI103
(lp119
I1
asI104
(lp120
I1
asI105
(lp121
I1
asI106
(lp122
I1
asI107
(lp123
I1
asI108
(lp124
I1
asI109
(lp125
I1
asI110
(lp126
I1
asI111
(lp127
I1
asI112
(lp128
I1
asI113
(lp129
I1
asI114
(lp130
I1
asI115
(lp131
I1
asI116
(lp132
I1
asI117
(lp133
I1
asI118
(lp134
I1
asI119
(lp135
I1
asI120
(lp136
I1
asI121
(lp137
I1
asI122
(lp138
I1
asI123
(lp139
I1
asI124
(lp140
I1
asI125
(lp141
I1
asI126
(lp142
I1
asI127
(lp143
I1
asI128
(lp144
I1
asI129
(lp145
I1
asI130
(lp146
I1
asI131
(lp147
I1
asI132
(lp148
I1
asI133
(lp149
I1
asI134
(lp150
I1
asI135
(lp151
I1
asI136
(lp152
I1
asI137
(lp153
I1
asI138
(lp154
I1
asI139
(lp155
I1
asI140
(lp156
I1
asI141
(lp157
I1
asI142
(lp158
I1
asI143
(lp159
I1
asI144
(lp160
I1
asI145
(lp161
I1
assg3
(g7
S'\x00\x00\x00\x00\x00\x00\xe0?'
p162
tp163
Rp164
g13
(g14
tp165
Rp166
I1
(lp167
I3
asI2
(lp168
I3
asI3
(lp169
I4
asI4
(lp170
I3
asI5
(lp171
I4
asI6
(lp172
I3
asI7
(lp173
I4
asI8
(lp174
I4
asI9
(lp175
I4
asI10
(lp176
I4
asI11
(lp177
I4
asI12
(lp178
I4
asI13
(lp179
I4
asI14
(lp180
I4
asI15
(lp181
I4
asI16
(lp182
I5
asI17
(lp183
I4
asI18
(lp184
I4
asI19
(lp185
I5
asI20
(lp186
I4
asI21
(lp187
I4
asI22
(lp188
I4
asI23
(lp189
I4
asI24
(lp190
I4
asI25
(lp191
I4
asI26
(lp192
I6
asI27
(lp193
I4
asI28
(lp194
I4
asI29
(lp195
I4
asI30
(lp196
I5
asI31
(lp197
I5
asI32
(lp198
I5
asI33
(lp199
I4
asI34
(lp200
I6
asI35
(lp201
I5
asI36
(lp202
I5
asI37
(lp203
I4
asI38
(lp204
I4
asI39
(lp205
I5
asI40
(lp206
I4
asI41
(lp207
I6
asI42
(lp208
I6
asI43
(lp209
I6
asI44
(lp210
I7
asI45
(lp211
I6
asI46
(lp212
I6
asI47
(lp213
I5
asI48
(lp214
I5
asI49
(lp215
I5
asI50
(lp216
I6
asI51
(lp217
I6
asI52
(lp218
I5
asI53
(lp219
I6
asI54
(lp220
I5
asI55
(lp221
I5
asI56
(lp222
I5
asI57
(lp223
I5
asI58
(lp224
I2
asI59
(lp225
I5
asI60
(lp226
I3
asI61
(lp227
I6
asI62
(lp228
I5
asI63
(lp229
I5
asI64
(lp230
I5
asI65
(lp231
I6
asI66
(lp232
I1
asI67
(lp233
I6
asI68
(lp234
I5
asI69
(lp235
I2
asI70
(lp236
I4
asI71
(lp237
I5
asI72
(lp238
I3
asI73
(lp239
I2
asI74
(lp240
I1
asI75
(lp241
I5
asI76
(lp242
I2
asI77
(lp243
I7
asI78
(lp244
I2
asI79
(lp245
I8
asI80
(lp246
I6
asI81
(lp247
I3
asI82
(lp248
I5
asI83
(lp249
I8
asI84
(lp250
I3
asI85
(lp251
I6
asI86
(lp252
I5
asI87
(lp253
I8
asI88
(lp254
I1
asI89
(lp255
I8
asI90
(lp256
I5
asI91
(lp257
I2
asI92
(lp258
I1
asI93
(lp259
I7
asI94
(lp260
I4
asI95
(lp261
I2
asI96
(lp262
I6
asI97
(lp263
I4
asI98
(lp264
I6
asI99
(lp265
I7
asI100
(lp266
I1
asI101
(lp267
I1
asI102
(lp268
I2
asI103
(lp269
I9
asI104
(lp270
I1
asI105
(lp271
I2
asI106
(lp272
I7
asI107
(lp273
I7
asI108
(lp274
I1
asI109
(lp275
I9
asI110
(lp276
I1
asI111
(lp277
I6
asI112
(lp278
I1
asI113
(lp279
I6
asI114
(lp280
I8
asI115
(lp281
I1
asI116
(lp282
I1
asI117
(lp283
I1
asI118
(lp284
I5
asI119
(lp285
I4
asI120
(lp286
I2
asI121
(lp287
I1
asI122
(lp288
I1
asI123
(lp289
I2
asI124
(lp290
I1
asI125
(lp291
I8
asI126
(lp292
I1
asI127
(lp293
I2
asI128
(lp294
I2
asI129
(lp295
I1
asI130
(lp296
I1
asI131
(lp297
I1
asI132
(lp298
I1
asI133
(lp299
I1
asI134
(lp300
I1
asI135
(lp301
I1
asI136
(lp302
I2
asI137
(lp303
I1
asI138
(lp304
I1
asI139
(lp305
I1
asI140
(lp306
I1
asI141
(lp307
I1
asI142
(lp308
I1
asI143
(lp309
I5
asI144
(lp310
I1
asI145
(lp311
I1
assg3
(g7
S'\x9a\x99\x99\x99\x99\x99\xc9?'
p312
tp313
Rp314
g13
(g14
tp315
Rp316
I1
(lp317
I4
asI2
(lp318
I4
asI3
(lp319
I4
asI4
(lp320
I4
asI5
(lp321
I4
asI6
(lp322
I5
asI7
(lp323
I4
asI8
(lp324
I5
asI9
(lp325
I5
asI10
(lp326
I5
asI11
(lp327
I5
asI12
(lp328
I5
asI13
(lp329
I6
asI14
(lp330
I5
asI15
(lp331
I5
asI16
(lp332
I7
asI17
(lp333
I6
asI18
(lp334
I5
asI19
(lp335
I5
asI20
(lp336
I8
asI21
(lp337
I5
asI22
(lp338
I7
asI23
(lp339
I5
asI24
(lp340
I6
asI25
(lp341
I5
asI26
(lp342
I7
asI27
(lp343
I6
asI28
(lp344
I7
asI29
(lp345
I5
asI30
(lp346
I6
asI31
(lp347
I5
asI32
(lp348
I8
asI33
(lp349
I5
asI34
(lp350
I6
asI35
(lp351
I6
asI36
(lp352
I5
asI37
(lp353
I7
asI38
(lp354
I6
asI39
(lp355
I2
asI40
(lp356
I7
asI41
(lp357
I3
asI42
(lp358
I6
asI43
(lp359
I7
asI44
(lp360
I7
asI45
(lp361
I7
asI46
(lp362
I3
asI47
(lp363
I1
asI48
(lp364
I3
asI49
(lp365
I3
asI50
(lp366
I5
asI51
(lp367
I1
asI52
(lp368
I3
asI53
(lp369
I7
asI54
(lp370
I1
asI55
(lp371
I6
asI56
(lp372
I1
asI57
(lp373
I6
asI58
(lp374
I3
asI59
(lp375
I6
asI60
(lp376
I3
asI61
(lp377
I2
asI62
(lp378
I1
asI63
(lp379
I3
asI64
(lp380
I2
asI65
(lp381
I7
asI66
(lp382
I1
asI67
(lp383
I3
asI68
(lp384
I7
asI69
(lp385
I1
asI70
(lp386
I3
asI71
(lp387
I6
asI72
(lp388
I1
asI73
(lp389
I1
asI74
(lp390
I1
asI75
(lp391
I4
asI76
(lp392
I1
asI77
(lp393
I7
asI78
(lp394
I3
asI79
(lp395
I1
asI80
(lp396
I10
asI81
(lp397
I1
asI82
(lp398
I4
asI83
(lp399
I1
asI84
(lp400
I2
asI85
(lp401
I1
asI86
(lp402
I2
asI87
(lp403
I2
asI88
(lp404
I1
asI89
(lp405
I2
asI90
(lp406
I2
asI91
(lp407
I1
asI92
(lp408
I1
asI93
(lp409
I1
asI94
(lp410
I8
asI95
(lp411
I2
asI96
(lp412
I5
asI97
(lp413
I3
asI98
(lp414
I1
asI99
(lp415
I8
asI100
(lp416
I1
asI101
(lp417
I1
asI102
(lp418
I1
asI103
(lp419
I2
asI104
(lp420
I2
asI105
(lp421
I1
asI106
(lp422
I1
asI107
(lp423
I1
asI108
(lp424
I1
asI109
(lp425
I10
asI110
(lp426
I1
asI111
(lp427
I1
asI112
(lp428
I1
asI113
(lp429
I6
asI114
(lp430
I1
asI115
(lp431
I3
asI116
(lp432
I1
asI117
(lp433
I1
asI118
(lp434
I2
asI119
(lp435
I1
asI120
(lp436
I1
asI121
(lp437
I1
asI122
(lp438
I1
asI123
(lp439
I2
asI124
(lp440
I1
asI125
(lp441
I2
asI126
(lp442
I1
asI127
(lp443
I2
asI128
(lp444
I1
asI129
(lp445
I1
asI130
(lp446
I1
asI131
(lp447
I1
asI132
(lp448
I1
asI133
(lp449
I1
asI134
(lp450
I1
asI135
(lp451
I1
asI136
(lp452
I1
asI137
(lp453
I1
asI138
(lp454
I1
asI139
(lp455
I1
asI140
(lp456
I1
asI141
(lp457
I1
asI142
(lp458
I1
asI143
(lp459
I1
asI144
(lp460
I1
asI145
(lp461
I1
assg3
(g7
S'\x9a\x99\x99\x99\x99\x99\xd9?'
p462
tp463
Rp464
g13
(g14
tp465
Rp466
I1
(lp467
I4
asI2
(lp468
I3
asI3
(lp469
I4
asI4
(lp470
I3
asI5
(lp471
I4
asI6
(lp472
I4
asI7
(lp473
I5
asI8
(lp474
I4
asI9
(lp475
I4
asI10
(lp476
I4
asI11
(lp477
I4
asI12
(lp478
I4
asI13
(lp479
I4
asI14
(lp480
I4
asI15
(lp481
I5
asI16
(lp482
I4
asI17
(lp483
I5
asI18
(lp484
I5
asI19
(lp485
I4
asI20
(lp486
I5
asI21
(lp487
I4
asI22
(lp488
I4
asI23
(lp489
I5
asI24
(lp490
I4
asI25
(lp491
I5
asI26
(lp492
I5
asI27
(lp493
I4
asI28
(lp494
I5
asI29
(lp495
I5
asI30
(lp496
I7
asI31
(lp497
I5
asI32
(lp498
I4
asI33
(lp499
I4
asI34
(lp500
I5
asI35
(lp501
I7
asI36
(lp502
I7
asI37
(lp503
I6
asI38
(lp504
I4
asI39
(lp505
I3
asI40
(lp506
I4
asI41
(lp507
I7
asI42
(lp508
I6
asI43
(lp509
I6
asI44
(lp510
I8
asI45
(lp511
I6
asI46
(lp512
I7
asI47
(lp513
I5
asI48
(lp514
I5
asI49
(lp515
I7
asI50
(lp516
I6
asI51
(lp517
I6
asI52
(lp518
I6
asI53
(lp519
I5
asI54
(lp520
I6
asI55
(lp521
I5
asI56
(lp522
I2
asI57
(lp523
I5
asI58
(lp524
I13
asI59
(lp525
I5
asI60
(lp526
I6
asI61
(lp527
I3
asI62
(lp528
I2
asI63
(lp529
I4
asI64
(lp530
I5
asI65
(lp531
I8
asI66
(lp532
I2
asI67
(lp533
I3
asI68
(lp534
I6
asI69
(lp535
I9
asI70
(lp536
I5
asI71
(lp537
I2
asI72
(lp538
I1
asI73
(lp539
I2
asI74
(lp540
I1
asI75
(lp541
I7
asI76
(lp542
I2
asI77
(lp543
I5
asI78
(lp544
I1
asI79
(lp545
I7
asI80
(lp546
I7
asI81
(lp547
I2
asI82
(lp548
I5
asI83
(lp549
I2
asI84
(lp550
I2
asI85
(lp551
I2
asI86
(lp552
I2
asI87
(lp553
I9
asI88
(lp554
I5
asI89
(lp555
I7
asI90
(lp556
I7
asI91
(lp557
I6
asI92
(lp558
I1
asI93
(lp559
I6
asI94
(lp560
I5
asI95
(lp561
I8
asI96
(lp562
I7
asI97
(lp563
I2
asI98
(lp564
I1
asI99
(lp565
I5
asI100
(lp566
I1
asI101
(lp567
I1
asI102
(lp568
I2
asI103
(lp569
I2
asI104
(lp570
I2
asI105
(lp571
I1
asI106
(lp572
I10
asI107
(lp573
I1
asI108
(lp574
I1
asI109
(lp575
I7
asI110
(lp576
I1
asI111
(lp577
I6
asI112
(lp578
I1
asI113
(lp579
I2
asI114
(lp580
I7
asI115
(lp581
I2
asI116
(lp582
I1
asI117
(lp583
I1
asI118
(lp584
I4
asI119
(lp585
I1
asI120
(lp586
I2
asI121
(lp587
I1
asI122
(lp588
I1
asI123
(lp589
I1
asI124
(lp590
I8
asI125
(lp591
I2
asI126
(lp592
I1
asI127
(lp593
I2
asI128
(lp594
I1
asI129
(lp595
I1
asI130
(lp596
I1
asI131
(lp597
I1
asI132
(lp598
I1
asI133
(lp599
I6
asI134
(lp600
I1
asI135
(lp601
I1
asI136
(lp602
I1
asI137
(lp603
I1
asI138
(lp604
I1
asI139
(lp605
I1
asI140
(lp606
I1
asI141
(lp607
I1
asI142
(lp608
I1
asI143
(lp609
I1
asI144
(lp610
I1
asI145
(lp611
I1
assg3
(g7
S'\x00\x00\x00\x00\x00\x00\xf0?'
p612
tp613
Rp614
g13
(g14
tp615
Rp616
I1
(lp617
I3
asI2
(lp618
I3
asI3
(lp619
I3
asI4
(lp620
I3
asI5
(lp621
I3
asI6
(lp622
I3
asI7
(lp623
I3
asI8
(lp624
I4
asI9
(lp625
I3
asI10
(lp626
I3
asI11
(lp627
I3
asI12
(lp628
I3
asI13
(lp629
I3
asI14
(lp630
I4
asI15
(lp631
I4
asI16
(lp632
I3
asI17
(lp633
I4
asI18
(lp634
I4
asI19
(lp635
I3
asI20
(lp636
I4
asI21
(lp637
I3
asI22
(lp638
I4
asI23
(lp639
I4
asI24
(lp640
I4
asI25
(lp641
I4
asI26
(lp642
I4
asI27
(lp643
I4
asI28
(lp644
I4
asI29
(lp645
I4
asI30
(lp646
I4
asI31
(lp647
I4
asI32
(lp648
I4
asI33
(lp649
I4
asI34
(lp650
I4
asI35
(lp651
I4
asI36
(lp652
I4
asI37
(lp653
I4
asI38
(lp654
I4
asI39
(lp655
I4
asI40
(lp656
I4
asI41
(lp657
I4
asI42
(lp658
I5
asI43
(lp659
I5
asI44
(lp660
I5
asI45
(lp661
I5
asI46
(lp662
I4
asI47
(lp663
I5
asI48
(lp664
I4
asI49
(lp665
I5
asI50
(lp666
I5
asI51
(lp667
I4
asI52
(lp668
I5
asI53
(lp669
I4
asI54
(lp670
I4
asI55
(lp671
I4
asI56
(lp672
I5
asI57
(lp673
I4
asI58
(lp674
I6
asI59
(lp675
I5
asI60
(lp676
I4
asI61
(lp677
I4
asI62
(lp678
I4
asI63
(lp679
I4
asI64
(lp680
I4
asI65
(lp681
I5
asI66
(lp682
I6
asI67
(lp683
I5
asI68
(lp684
I4
asI69
(lp685
I6
asI70
(lp686
I4
asI71
(lp687
I5
asI72
(lp688
I7
asI73
(lp689
I6
asI74
(lp690
I1
asI75
(lp691
I5
asI76
(lp692
I2
asI77
(lp693
I5
asI78
(lp694
I5
asI79
(lp695
I5
asI80
(lp696
I6
asI81
(lp697
I5
asI82
(lp698
I5
asI83
(lp699
I6
asI84
(lp700
I7
asI85
(lp701
I6
asI86
(lp702
I5
asI87
(lp703
I7
asI88
(lp704
I6
asI89
(lp705
I5
asI90
(lp706
I5
asI91
(lp707
I6
asI92
(lp708
I4
asI93
(lp709
I5
asI94
(lp710
I4
asI95
(lp711
I6
asI96
(lp712
I6
asI97
(lp713
I5
asI98
(lp714
I5
asI99
(lp715
I4
asI100
(lp716
I2
asI101
(lp717
I1
asI102
(lp718
I9
asI103
(lp719
I6
asI104
(lp720
I2
asI105
(lp721
I5
asI106
(lp722
I5
asI107
(lp723
I7
asI108
(lp724
I1
asI109
(lp725
I5
asI110
(lp726
I4
asI111
(lp727
I5
asI112
(lp728
I1
asI113
(lp729
I5
asI114
(lp730
I5
asI115
(lp731
I7
asI116
(lp732
I1
asI117
(lp733
I1
asI118
(lp734
I4
asI119
(lp735
I7
asI120
(lp736
I2
asI121
(lp737
I1
asI122
(lp738
I6
asI123
(lp739
I8
asI124
(lp740
I6
asI125
(lp741
I6
asI126
(lp742
I1
asI127
(lp743
I2
asI128
(lp744
I2
asI129
(lp745
I1
asI130
(lp746
I1
asI131
(lp747
I1
asI132
(lp748
I1
asI133
(lp749
I5
asI134
(lp750
I1
asI135
(lp751
I1
asI136
(lp752
I2
asI137
(lp753
I1
asI138
(lp754
I1
asI139
(lp755
I1
asI140
(lp756
I1
asI141
(lp757
I1
asI142
(lp758
I1
asI143
(lp759
I5
asI144
(lp760
I1
asI145
(lp761
I1
assg3
(g7
S'\x9a\x99\x99\x99\x99\x99\xe9?'
p762
tp763
Rp764
g13
(g14
tp765
Rp766
I1
(lp767
I3
asI2
(lp768
I3
asI3
(lp769
I3
asI4
(lp770
I3
asI5
(lp771
I3
asI6
(lp772
I3
asI7
(lp773
I3
asI8
(lp774
I4
asI9
(lp775
I4
asI10
(lp776
I3
asI11
(lp777
I3
asI12
(lp778
I3
asI13
(lp779
I4
asI14
(lp780
I4
asI15
(lp781
I4
asI16
(lp782
I4
asI17
(lp783
I4
asI18
(lp784
I4
asI19
(lp785
I3
asI20
(lp786
I4
asI21
(lp787
I4
asI22
(lp788
I4
asI23
(lp789
I4
asI24
(lp790
I4
asI25
(lp791
I4
asI26
(lp792
I4
asI27
(lp793
I4
asI28
(lp794
I4
asI29
(lp795
I4
asI30
(lp796
I5
asI31
(lp797
I4
asI32
(lp798
I4
asI33
(lp799
I4
asI34
(lp800
I4
asI35
(lp801
I4
asI36
(lp802
I4
asI37
(lp803
I4
asI38
(lp804
I4
asI39
(lp805
I4
asI40
(lp806
I4
asI41
(lp807
I5
asI42
(lp808
I5
asI43
(lp809
I3
asI44
(lp810
I5
asI45
(lp811
I5
asI46
(lp812
I5
asI47
(lp813
I5
asI48
(lp814
I4
asI49
(lp815
I5
asI50
(lp816
I5
asI51
(lp817
I4
asI52
(lp818
I5
asI53
(lp819
I5
asI54
(lp820
I5
asI55
(lp821
I5
asI56
(lp822
I6
asI57
(lp823
I4
asI58
(lp824
I10
asI59
(lp825
I5
asI60
(lp826
I5
asI61
(lp827
I4
asI62
(lp828
I4
asI63
(lp829
I4
asI64
(lp830
I4
asI65
(lp831
I5
asI66
(lp832
I2
asI67
(lp833
I6
asI68
(lp834
I4
asI69
(lp835
I6
asI70
(lp836
I4
asI71
(lp837
I5
asI72
(lp838
I7
asI73
(lp839
I6
asI74
(lp840
I1
asI75
(lp841
I5
asI76
(lp842
I2
asI77
(lp843
I7
asI78
(lp844
I2
asI79
(lp845
I5
asI80
(lp846
I6
asI81
(lp847
I6
asI82
(lp848
I5
asI83
(lp849
I7
asI84
(lp850
I3
asI85
(lp851
I6
asI86
(lp852
I5
asI87
(lp853
I8
asI88
(lp854
I6
asI89
(lp855
I6
asI90
(lp856
I5
asI91
(lp857
I6
asI92
(lp858
I4
asI93
(lp859
I6
asI94
(lp860
I4
asI95
(lp861
I1
asI96
(lp862
I6
asI97
(lp863
I6
asI98
(lp864
I6
asI99
(lp865
I4
asI100
(lp866
I2
asI101
(lp867
I1
asI102
(lp868
I2
asI103
(lp869
I6
asI104
(lp870
I2
asI105
(lp871
I6
asI106
(lp872
I6
asI107
(lp873
I2
asI108
(lp874
I1
asI109
(lp875
I6
asI110
(lp876
I4
asI111
(lp877
I1
asI112
(lp878
I1
asI113
(lp879
I5
asI114
(lp880
I6
asI115
(lp881
I7
asI116
(lp882
I1
asI117
(lp883
I1
asI118
(lp884
I5
asI119
(lp885
I8
asI120
(lp886
I1
asI121
(lp887
I1
asI122
(lp888
I6
asI123
(lp889
I2
asI124
(lp890
I6
asI125
(lp891
I7
asI126
(lp892
I1
asI127
(lp893
I2
asI128
(lp894
I2
asI129
(lp895
I1
asI130
(lp896
I1
asI131
(lp897
I1
asI132
(lp898
I1
asI133
(lp899
I1
asI134
(lp900
I1
asI135
(lp901
I1
asI136
(lp902
I2
asI137
(lp903
I1
asI138
(lp904
I1
asI139
(lp905
I1
asI140
(lp906
I1
asI141
(lp907
I1
asI142
(lp908
I1
asI143
(lp909
I1
asI144
(lp910
I1
asI145
(lp911
I1
assg3
(g7
S'433333\xe3?'
p912
tp913
Rp914
g13
(g14
tp915
Rp916
I1
(lp917
I3
asI2
(lp918
I3
asI3
(lp919
I3
asI4
(lp920
I4
asI5
(lp921
I4
asI6
(lp922
I3
asI7
(lp923
I3
asI8
(lp924
I4
asI9
(lp925
I4
asI10
(lp926
I3
asI11
(lp927
I3
asI12
(lp928
I4
asI13
(lp929
I3
asI14
(lp930
I4
asI15
(lp931
I4
asI16
(lp932
I4
asI17
(lp933
I4
asI18
(lp934
I4
asI19
(lp935
I4
asI20
(lp936
I5
asI21
(lp937
I4
asI22
(lp938
I4
asI23
(lp939
I4
asI24
(lp940
I4
asI25
(lp941
I4
asI26
(lp942
I5
asI27
(lp943
I4
asI28
(lp944
I4
asI29
(lp945
I4
asI30
(lp946
I5
asI31
(lp947
I4
asI32
(lp948
I4
asI33
(lp949
I4
asI34
(lp950
I4
asI35
(lp951
I5
asI36
(lp952
I4
asI37
(lp953
I5
asI38
(lp954
I4
asI39
(lp955
I5
asI40
(lp956
I4
asI41
(lp957
I5
asI42
(lp958
I5
asI43
(lp959
I5
asI44
(lp960
I5
asI45
(lp961
I5
asI46
(lp962
I5
asI47
(lp963
I5
asI48
(lp964
I6
asI49
(lp965
I7
asI50
(lp966
I6
asI51
(lp967
I4
asI52
(lp968
I5
asI53
(lp969
I2
asI54
(lp970
I5
asI55
(lp971
I5
asI56
(lp972
I5
asI57
(lp973
I4
asI58
(lp974
I6
asI59
(lp975
I5
asI60
(lp976
I4
asI61
(lp977
I5
asI62
(lp978
I5
asI63
(lp979
I4
asI64
(lp980
I5
asI65
(lp981
I5
asI66
(lp982
I1
asI67
(lp983
I7
asI68
(lp984
I5
asI69
(lp985
I6
asI70
(lp986
I5
asI71
(lp987
I7
asI72
(lp988
I2
asI73
(lp989
I3
asI74
(lp990
I1
asI75
(lp991
I6
asI76
(lp992
I2
asI77
(lp993
I5
asI78
(lp994
I6
asI79
(lp995
I5
asI80
(lp996
I8
asI81
(lp997
I5
asI82
(lp998
I5
asI83
(lp999
I5
asI84
(lp1000
I3
asI85
(lp1001
I7
asI86
(lp1002
I5
asI87
(lp1003
I7
asI88
(lp1004
I2
asI89
(lp1005
I7
asI90
(lp1006
I5
asI91
(lp1007
I1
asI92
(lp1008
I4
asI93
(lp1009
I6
asI94
(lp1010
I4
asI95
(lp1011
I2
asI96
(lp1012
I9
asI97
(lp1013
I7
asI98
(lp1014
I1
asI99
(lp1015
I4
asI100
(lp1016
I2
asI101
(lp1017
I1
asI102
(lp1018
I11
asI103
(lp1019
I6
asI104
(lp1020
I2
asI105
(lp1021
I2
asI106
(lp1022
I5
asI107
(lp1023
I7
asI108
(lp1024
I1
asI109
(lp1025
I8
asI110
(lp1026
I5
asI111
(lp1027
I1
asI112
(lp1028
I1
asI113
(lp1029
I6
asI114
(lp1030
I6
asI115
(lp1031
I4
asI116
(lp1032
I1
asI117
(lp1033
I1
asI118
(lp1034
I2
asI119
(lp1035
I9
asI120
(lp1036
I2
asI121
(lp1037
I1
asI122
(lp1038
I6
asI123
(lp1039
I2
asI124
(lp1040
I2
asI125
(lp1041
I3
asI126
(lp1042
I1
asI127
(lp1043
I2
asI128
(lp1044
I2
asI129
(lp1045
I1
asI130
(lp1046
I1
asI131
(lp1047
I1
asI132
(lp1048
I1
asI133
(lp1049
I5
asI134
(lp1050
I1
asI135
(lp1051
I1
asI136
(lp1052
I2
asI137
(lp1053
I1
asI138
(lp1054
I1
asI139
(lp1055
I1
asI140
(lp1056
I1
asI141
(lp1057
I1
asI142
(lp1058
I1
asI143
(lp1059
I6
asI144
(lp1060
I1
asI145
(lp1061
I1
assg3
(g7
S'433333\xd3?'
p1062
tp1063
Rp1064
g13
(g14
tp1065
Rp1066
I1
(lp1067
I4
asI2
(lp1068
I4
asI3
(lp1069
I4
asI4
(lp1070
I4
asI5
(lp1071
I4
asI6
(lp1072
I4
asI7
(lp1073
I4
asI8
(lp1074
I5
asI9
(lp1075
I5
asI10
(lp1076
I4
asI11
(lp1077
I4
asI12
(lp1078
I4
asI13
(lp1079
I4
asI14
(lp1080
I5
asI15
(lp1081
I5
asI16
(lp1082
I4
asI17
(lp1083
I5
asI18
(lp1084
I5
asI19
(lp1085
I5
asI20
(lp1086
I5
asI21
(lp1087
I4
asI22
(lp1088
I4
asI23
(lp1089
I5
asI24
(lp1090
I5
asI25
(lp1091
I6
asI26
(lp1092
I7
asI27
(lp1093
I5
asI28
(lp1094
I7
asI29
(lp1095
I5
asI30
(lp1096
I7
asI31
(lp1097
I6
asI32
(lp1098
I5
asI33
(lp1099
I5
asI34
(lp1100
I6
asI35
(lp1101
I5
asI36
(lp1102
I6
asI37
(lp1103
I8
asI38
(lp1104
I5
asI39
(lp1105
I8
asI40
(lp1106
I5
asI41
(lp1107
I7
asI42
(lp1108
I7
asI43
(lp1109
I8
asI44
(lp1110
I6
asI45
(lp1111
I2
asI46
(lp1112
I11
asI47
(lp1113
I7
asI48
(lp1114
I10
asI49
(lp1115
I6
asI50
(lp1116
I7
asI51
(lp1117
I6
asI52
(lp1118
I6
asI53
(lp1119
I6
asI54
(lp1120
I6
asI55
(lp1121
I6
asI56
(lp1122
I9
asI57
(lp1123
I5
asI58
(lp1124
I2
asI59
(lp1125
I4
asI60
(lp1126
I2
asI61
(lp1127
I6
asI62
(lp1128
I6
asI63
(lp1129
I6
asI64
(lp1130
I2
asI65
(lp1131
I9
asI66
(lp1132
I2
asI67
(lp1133
I2
asI68
(lp1134
I3
asI69
(lp1135
I10
asI70
(lp1136
I8
asI71
(lp1137
I6
asI72
(lp1138
I1
asI73
(lp1139
I1
asI74
(lp1140
I1
asI75
(lp1141
I6
asI76
(lp1142
I2
asI77
(lp1143
I8
asI78
(lp1144
I4
asI79
(lp1145
I1
asI80
(lp1146
I7
asI81
(lp1147
I2
asI82
(lp1148
I1
asI83
(lp1149
I2
asI84
(lp1150
I2
asI85
(lp1151
I3
asI86
(lp1152
I6
asI87
(lp1153
I1
asI88
(lp1154
I1
asI89
(lp1155
I2
asI90
(lp1156
I6
asI91
(lp1157
I1
asI92
(lp1158
I2
asI93
(lp1159
I1
asI94
(lp1160
I2
asI95
(lp1161
I1
asI96
(lp1162
I3
asI97
(lp1163
I7
asI98
(lp1164
I1
asI99
(lp1165
I6
asI100
(lp1166
I1
asI101
(lp1167
I1
asI102
(lp1168
I1
asI103
(lp1169
I3
asI104
(lp1170
I2
asI105
(lp1171
I2
asI106
(lp1172
I1
asI107
(lp1173
I1
asI108
(lp1174
I1
asI109
(lp1175
I6
asI110
(lp1176
I1
asI111
(lp1177
I1
asI112
(lp1178
I1
asI113
(lp1179
I6
asI114
(lp1180
I2
asI115
(lp1181
I3
asI116
(lp1182
I1
asI117
(lp1183
I1
asI118
(lp1184
I1
asI119
(lp1185
I1
asI120
(lp1186
I1
asI121
(lp1187
I1
asI122
(lp1188
I1
asI123
(lp1189
I1
asI124
(lp1190
I8
asI125
(lp1191
I2
asI126
(lp1192
I1
asI127
(lp1193
I2
asI128
(lp1194
I1
asI129
(lp1195
I1
asI130
(lp1196
I1
asI131
(lp1197
I1
asI132
(lp1198
I1
asI133
(lp1199
I1
asI134
(lp1200
I1
asI135
(lp1201
I1
asI136
(lp1202
I1
asI137
(lp1203
I1
asI138
(lp1204
I1
asI139
(lp1205
I1
asI140
(lp1206
I1
asI141
(lp1207
I1
asI142
(lp1208
I1
asI143
(lp1209
I7
asI144
(lp1210
I1
asI145
(lp1211
I1
assg3
(g7
S'\x9a\x99\x99\x99\x99\x99\xb9?'
p1212
tp1213
Rp1214
g13
(g14
tp1215
Rp1216
I1
(lp1217
I6
asI2
(lp1218
I5
asI3
(lp1219
I7
asI4
(lp1220
I5
asI5
(lp1221
I7
asI6
(lp1222
I6
asI7
(lp1223
I5
asI8
(lp1224
I10
asI9
(lp1225
I6
asI10
(lp1226
I6
asI11
(lp1227
I8
asI12
(lp1228
I6
asI13
(lp1229
I8
asI14
(lp1230
I9
asI15
(lp1231
I2
asI16
(lp1232
I4
asI17
(lp1233
I8
asI18
(lp1234
I6
asI19
(lp1235
I8
asI20
(lp1236
I10
asI21
(lp1237
I4
asI22
(lp1238
I1
asI23
(lp1239
I8
asI24
(lp1240
I6
asI25
(lp1241
I6
asI26
(lp1242
I1
asI27
(lp1243
I7
asI28
(lp1244
I2
asI29
(lp1245
I6
asI30
(lp1246
I3
asI31
(lp1247
I3
asI32
(lp1248
I2
asI33
(lp1249
I8
asI34
(lp1250
I1
asI35
(lp1251
I4
asI36
(lp1252
I10
asI37
(lp1253
I1
asI38
(lp1254
I1
asI39
(lp1255
I2
asI40
(lp1256
I6
asI41
(lp1257
I2
asI42
(lp1258
I2
asI43
(lp1259
I11
asI44
(lp1260
I3
asI45
(lp1261
I1
asI46
(lp1262
I4
asI47
(lp1263
I1
asI48
(lp1264
I7
asI49
(lp1265
I6
asI50
(lp1266
I2
asI51
(lp1267
I3
asI52
(lp1268
I1
asI53
(lp1269
I2
asI54
(lp1270
I1
asI55
(lp1271
I1
asI56
(lp1272
I1
asI57
(lp1273
I6
asI58
(lp1274
I2
asI59
(lp1275
I10
asI60
(lp1276
I1
asI61
(lp1277
I1
asI62
(lp1278
I1
asI63
(lp1279
I3
asI64
(lp1280
I2
asI65
(lp1281
I1
asI66
(lp1282
I1
asI67
(lp1283
I2
asI68
(lp1284
I2
asI69
(lp1285
I1
asI70
(lp1286
I10
asI71
(lp1287
I2
asI72
(lp1288
I1
asI73
(lp1289
I2
asI74
(lp1290
I1
asI75
(lp1291
I2
asI76
(lp1292
I1
asI77
(lp1293
I8
asI78
(lp1294
I1
asI79
(lp1295
I1
asI80
(lp1296
I1
asI81
(lp1297
I1
asI82
(lp1298
I2
asI83
(lp1299
I1
asI84
(lp1300
I1
asI85
(lp1301
I3
asI86
(lp1302
I1
asI87
(lp1303
I1
asI88
(lp1304
I1
asI89
(lp1305
I2
asI90
(lp1306
I1
asI91
(lp1307
I2
asI92
(lp1308
I1
asI93
(lp1309
I1
asI94
(lp1310
I1
asI95
(lp1311
I1
asI96
(lp1312
I1
asI97
(lp1313
I1
asI98
(lp1314
I3
asI99
(lp1315
I1
asI100
(lp1316
I2
asI101
(lp1317
I1
asI102
(lp1318
I1
asI103
(lp1319
I1
asI104
(lp1320
I1
asI105
(lp1321
I1
asI106
(lp1322
I1
asI107
(lp1323
I1
asI108
(lp1324
I1
asI109
(lp1325
I2
asI110
(lp1326
I1
asI111
(lp1327
I1
asI112
(lp1328
I1
asI113
(lp1329
I1
asI114
(lp1330
I1
asI115
(lp1331
I1
asI116
(lp1332
I1
asI117
(lp1333
I1
asI118
(lp1334
I2
asI119
(lp1335
I1
asI120
(lp1336
I1
asI121
(lp1337
I1
asI122
(lp1338
I1
asI123
(lp1339
I1
asI124
(lp1340
I1
asI125
(lp1341
I1
asI126
(lp1342
I1
asI127
(lp1343
I2
asI128
(lp1344
I2
asI129
(lp1345
I1
asI130
(lp1346
I1
asI131
(lp1347
I1
asI132
(lp1348
I1
asI133
(lp1349
I1
asI134
(lp1350
I1
asI135
(lp1351
I1
asI136
(lp1352
I1
asI137
(lp1353
I1
asI138
(lp1354
I1
asI139
(lp1355
I1
asI140
(lp1356
I1
asI141
(lp1357
I1
asI142
(lp1358
I1
asI143
(lp1359
I1
asI144
(lp1360
I1
asI145
(lp1361
I1
assg3
(g7
S'\xcd\xcc\xcc\xcc\xcc\xcc\xec?'
p1362
tp1363
Rp1364
g13
(g14
tp1365
Rp1366
I1
(lp1367
I3
asI2
(lp1368
I3
asI3
(lp1369
I3
asI4
(lp1370
I3
asI5
(lp1371
I3
asI6
(lp1372
I3
asI7
(lp1373
I3
asI8
(lp1374
I4
asI9
(lp1375
I4
asI10
(lp1376
I3
asI11
(lp1377
I3
asI12
(lp1378
I3
asI13
(lp1379
I3
asI14
(lp1380
I4
asI15
(lp1381
I4
asI16
(lp1382
I4
asI17
(lp1383
I4
asI18
(lp1384
I4
asI19
(lp1385
I4
asI20
(lp1386
I4
asI21
(lp1387
I3
asI22
(lp1388
I4
asI23
(lp1389
I4
asI24
(lp1390
I4
asI25
(lp1391
I4
asI26
(lp1392
I5
asI27
(lp1393
I4
asI28
(lp1394
I4
asI29
(lp1395
I4
asI30
(lp1396
I4
asI31
(lp1397
I4
asI32
(lp1398
I4
asI33
(lp1399
I4
asI34
(lp1400
I4
asI35
(lp1401
I4
asI36
(lp1402
I4
asI37
(lp1403
I4
asI38
(lp1404
I4
asI39
(lp1405
I4
asI40
(lp1406
I4
asI41
(lp1407
I4
asI42
(lp1408
I5
asI43
(lp1409
I5
asI44
(lp1410
I5
asI45
(lp1411
I5
asI46
(lp1412
I4
asI47
(lp1413
I5
asI48
(lp1414
I4
asI49
(lp1415
I5
asI50
(lp1416
I5
asI51
(lp1417
I4
asI52
(lp1418
I5
asI53
(lp1419
I4
asI54
(lp1420
I4
asI55
(lp1421
I5
asI56
(lp1422
I5
asI57
(lp1423
I4
asI58
(lp1424
I6
asI59
(lp1425
I5
asI60
(lp1426
I4
asI61
(lp1427
I4
asI62
(lp1428
I5
asI63
(lp1429
I4
asI64
(lp1430
I5
asI65
(lp1431
I5
asI66
(lp1432
I6
asI67
(lp1433
I5
asI68
(lp1434
I4
asI69
(lp1435
I6
asI70
(lp1436
I5
asI71
(lp1437
I5
asI72
(lp1438
I7
asI73
(lp1439
I6
asI74
(lp1440
I1
asI75
(lp1441
I5
asI76
(lp1442
I2
asI77
(lp1443
I5
asI78
(lp1444
I5
asI79
(lp1445
I6
asI80
(lp1446
I6
asI81
(lp1447
I5
asI82
(lp1448
I5
asI83
(lp1449
I6
asI84
(lp1450
I7
asI85
(lp1451
I6
asI86
(lp1452
I5
asI87
(lp1453
I7
asI88
(lp1454
I2
asI89
(lp1455
I6
asI90
(lp1456
I5
asI91
(lp1457
I6
asI92
(lp1458
I4
asI93
(lp1459
I5
asI94
(lp1460
I4
asI95
(lp1461
I6
asI96
(lp1462
I6
asI97
(lp1463
I6
asI98
(lp1464
I5
asI99
(lp1465
I4
asI100
(lp1466
I2
asI101
(lp1467
I1
asI102
(lp1468
I9
asI103
(lp1469
I2
asI104
(lp1470
I2
asI105
(lp1471
I6
asI106
(lp1472
I5
asI107
(lp1473
I2
asI108
(lp1474
I1
asI109
(lp1475
I5
asI110
(lp1476
I1
asI111
(lp1477
I5
asI112
(lp1478
I1
asI113
(lp1479
I5
asI114
(lp1480
I5
asI115
(lp1481
I7
asI116
(lp1482
I1
asI117
(lp1483
I1
asI118
(lp1484
I5
asI119
(lp1485
I7
asI120
(lp1486
I2
asI121
(lp1487
I1
asI122
(lp1488
I6
asI123
(lp1489
I8
asI124
(lp1490
I6
asI125
(lp1491
I7
asI126
(lp1492
I1
asI127
(lp1493
I2
asI128
(lp1494
I2
asI129
(lp1495
I1
asI130
(lp1496
I1
asI131
(lp1497
I1
asI132
(lp1498
I1
asI133
(lp1499
I1
asI134
(lp1500
I1
asI135
(lp1501
I1
asI136
(lp1502
I2
asI137
(lp1503
I1
asI138
(lp1504
I1
asI139
(lp1505
I1
asI140
(lp1506
I1
asI141
(lp1507
I1
asI142
(lp1508
I1
asI143
(lp1509
I5
asI144
(lp1510
I1
asI145
(lp1511
I1
assg3
(g7
S'gfffff\xe6?'
p1512
tp1513
Rp1514
g13
(g14
tp1515
Rp1516
I1
(lp1517
I3
asI2
(lp1518
I3
asI3
(lp1519
I3
asI4
(lp1520
I3
asI5
(lp1521
I3
asI6
(lp1522
I3
asI7
(lp1523
I3
asI8
(lp1524
I4
asI9
(lp1525
I4
asI10
(lp1526
I3
asI11
(lp1527
I3
asI12
(lp1528
I4
asI13
(lp1529
I4
asI14
(lp1530
I4
asI15
(lp1531
I4
asI16
(lp1532
I4
asI17
(lp1533
I4
asI18
(lp1534
I4
asI19
(lp1535
I4
asI20
(lp1536
I5
asI21
(lp1537
I4
asI22
(lp1538
I4
asI23
(lp1539
I4
asI24
(lp1540
I4
asI25
(lp1541
I4
asI26
(lp1542
I5
asI27
(lp1543
I4
asI28
(lp1544
I4
asI29
(lp1545
I4
asI30
(lp1546
I5
asI31
(lp1547
I4
asI32
(lp1548
I4
asI33
(lp1549
I4
asI34
(lp1550
I4
asI35
(lp1551
I5
asI36
(lp1552
I4
asI37
(lp1553
I5
asI38
(lp1554
I4
asI39
(lp1555
I4
asI40
(lp1556
I5
asI41
(lp1557
I5
asI42
(lp1558
I5
asI43
(lp1559
I5
asI44
(lp1560
I5
asI45
(lp1561
I5
asI46
(lp1562
I5
asI47
(lp1563
I5
asI48
(lp1564
I4
asI49
(lp1565
I5
asI50
(lp1566
I6
asI51
(lp1567
I4
asI52
(lp1568
I5
asI53
(lp1569
I5
asI54
(lp1570
I5
asI55
(lp1571
I5
asI56
(lp1572
I5
asI57
(lp1573
I4
asI58
(lp1574
I6
asI59
(lp1575
I5
asI60
(lp1576
I4
asI61
(lp1577
I5
asI62
(lp1578
I4
asI63
(lp1579
I4
asI64
(lp1580
I4
asI65
(lp1581
I5
asI66
(lp1582
I7
asI67
(lp1583
I6
asI68
(lp1584
I5
asI69
(lp1585
I6
asI70
(lp1586
I6
asI71
(lp1587
I5
asI72
(lp1588
I3
asI73
(lp1589
I7
asI74
(lp1590
I1
asI75
(lp1591
I5
asI76
(lp1592
I2
asI77
(lp1593
I5
asI78
(lp1594
I7
asI79
(lp1595
I2
asI80
(lp1596
I7
asI81
(lp1597
I7
asI82
(lp1598
I5
asI83
(lp1599
I7
asI84
(lp1600
I3
asI85
(lp1601
I6
asI86
(lp1602
I7
asI87
(lp1603
I7
asI88
(lp1604
I7
asI89
(lp1605
I6
asI90
(lp1606
I6
asI91
(lp1607
I6
asI92
(lp1608
I4
asI93
(lp1609
I5
asI94
(lp1610
I4
asI95
(lp1611
I2
asI96
(lp1612
I6
asI97
(lp1613
I6
asI98
(lp1614
I5
asI99
(lp1615
I5
asI100
(lp1616
I2
asI101
(lp1617
I1
asI102
(lp1618
I10
asI103
(lp1619
I6
asI104
(lp1620
I2
asI105
(lp1621
I2
asI106
(lp1622
I6
asI107
(lp1623
I7
asI108
(lp1624
I1
asI109
(lp1625
I4
asI110
(lp1626
I4
asI111
(lp1627
I1
asI112
(lp1628
I1
asI113
(lp1629
I5
asI114
(lp1630
I6
asI115
(lp1631
I2
asI116
(lp1632
I1
asI117
(lp1633
I1
asI118
(lp1634
I5
asI119
(lp1635
I8
asI120
(lp1636
I1
asI121
(lp1637
I1
asI122
(lp1638
I6
asI123
(lp1639
I8
asI124
(lp1640
I2
asI125
(lp1641
I3
asI126
(lp1642
I1
asI127
(lp1643
I2
asI128
(lp1644
I1
asI129
(lp1645
I1
asI130
(lp1646
I1
asI131
(lp1647
I1
asI132
(lp1648
I1
asI133
(lp1649
I5
asI134
(lp1650
I1
asI135
(lp1651
I1
asI136
(lp1652
I2
asI137
(lp1653
I1
asI138
(lp1654
I1
asI139
(lp1655
I1
asI140
(lp1656
I1
asI141
(lp1657
I1
asI142
(lp1658
I1
asI143
(lp1659
I1
asI144
(lp1660
I1
asI145
(lp1661
I1
asssS'size'
p1662
(dp1663
g12
g13
(g14
tp1664
Rp1665
I1
(lp1666
F0.006944444444444444
asI2
(lp1667
F0.006944444444444444
asI3
(lp1668
F0.006944444444444444
asI4
(lp1669
F0.006944444444444444
asI5
(lp1670
F0.006944444444444444
asI6
(lp1671
F0.006944444444444444
asI7
(lp1672
F0.006944444444444444
asI8
(lp1673
F0.006944444444444444
asI9
(lp1674
F0.006944444444444444
asI10
(lp1675
F0.006944444444444444
asI11
(lp1676
F0.006944444444444444
asI12
(lp1677
F0.006944444444444444
asI13
(lp1678
F0.006944444444444444
asI14
(lp1679
F0.006944444444444444
asI15
(lp1680
F0.006944444444444444
asI16
(lp1681
F0.006944444444444444
asI17
(lp1682
F0.006944444444444444
asI18
(lp1683
F0.006944444444444444
asI19
(lp1684
F0.006944444444444444
asI20
(lp1685
F0.006944444444444444
asI21
(lp1686
F0.006944444444444444
asI22
(lp1687
F0.006944444444444444
asI23
(lp1688
F0.006944444444444444
asI24
(lp1689
F0.006944444444444444
asI25
(lp1690
F0.006944444444444444
asI26
(lp1691
F0.006944444444444444
asI27
(lp1692
F0.006944444444444444
asI28
(lp1693
F0.006944444444444444
asI29
(lp1694
F0.006944444444444444
asI30
(lp1695
F0.006944444444444444
asI31
(lp1696
F0.006944444444444444
asI32
(lp1697
F0.006944444444444444
asI33
(lp1698
F0.006944444444444444
asI34
(lp1699
F0.006944444444444444
asI35
(lp1700
F0.006944444444444444
asI36
(lp1701
F0.006944444444444444
asI37
(lp1702
F0.006944444444444444
asI38
(lp1703
F0.006944444444444444
asI39
(lp1704
F0.006944444444444444
asI40
(lp1705
F0.006944444444444444
asI41
(lp1706
F0.006944444444444444
asI42
(lp1707
F0.006944444444444444
asI43
(lp1708
F0.006944444444444444
asI44
(lp1709
F0.006944444444444444
asI45
(lp1710
F0.006944444444444444
asI46
(lp1711
F0.006944444444444444
asI47
(lp1712
F0.006944444444444444
asI48
(lp1713
F0.006944444444444444
asI49
(lp1714
F0.006944444444444444
asI50
(lp1715
F0.006944444444444444
asI51
(lp1716
F0.006944444444444444
asI52
(lp1717
F0.006944444444444444
asI53
(lp1718
F0.006944444444444444
asI54
(lp1719
F0.006944444444444444
asI55
(lp1720
F0.006944444444444444
asI56
(lp1721
F0.006944444444444444
asI57
(lp1722
F0.006944444444444444
asI58
(lp1723
F0.006944444444444444
asI59
(lp1724
F0.006944444444444444
asI60
(lp1725
F0.006944444444444444
asI61
(lp1726
F0.006944444444444444
asI62
(lp1727
F0.006944444444444444
asI63
(lp1728
F0.006944444444444444
asI64
(lp1729
F0.006944444444444444
asI65
(lp1730
F0.006944444444444444
asI66
(lp1731
F0.006944444444444444
asI67
(lp1732
F0.006944444444444444
asI68
(lp1733
F0.006944444444444444
asI69
(lp1734
F0.006944444444444444
asI70
(lp1735
F0.006944444444444444
asI71
(lp1736
F0.006944444444444444
asI72
(lp1737
F0.006944444444444444
asI73
(lp1738
F0.006944444444444444
asI74
(lp1739
F0.006944444444444444
asI75
(lp1740
F0.006944444444444444
asI76
(lp1741
F0.006944444444444444
asI77
(lp1742
F0.006944444444444444
asI78
(lp1743
F0.006944444444444444
asI79
(lp1744
F0.006944444444444444
asI80
(lp1745
F0.006944444444444444
asI81
(lp1746
F0.006944444444444444
asI82
(lp1747
F0.006944444444444444
asI83
(lp1748
F0.006944444444444444
asI84
(lp1749
F0.006944444444444444
asI85
(lp1750
F0.006944444444444444
asI86
(lp1751
F0.006944444444444444
asI87
(lp1752
F0.006944444444444444
asI88
(lp1753
F0.006944444444444444
asI89
(lp1754
F0.006944444444444444
asI90
(lp1755
F0.006944444444444444
asI91
(lp1756
F0.006944444444444444
asI92
(lp1757
F0.006944444444444444
asI93
(lp1758
F0.006944444444444444
asI94
(lp1759
F0.006944444444444444
asI95
(lp1760
F0.006944444444444444
asI96
(lp1761
F0.006944444444444444
asI97
(lp1762
F0.006944444444444444
asI98
(lp1763
F0.006944444444444444
asI99
(lp1764
F0.006944444444444444
asI100
(lp1765
F0.006944444444444444
asI101
(lp1766
F0.006944444444444444
asI102
(lp1767
F0.006944444444444444
asI103
(lp1768
F0.006944444444444444
asI104
(lp1769
F0.006944444444444444
asI105
(lp1770
F0.006944444444444444
asI106
(lp1771
F0.006944444444444444
asI107
(lp1772
F0.006944444444444444
asI108
(lp1773
F0.006944444444444444
asI109
(lp1774
F0.006944444444444444
asI110
(lp1775
F0.006944444444444444
asI111
(lp1776
F0.006944444444444444
asI112
(lp1777
F0.006944444444444444
asI113
(lp1778
F0.006944444444444444
asI114
(lp1779
F0.006944444444444444
asI115
(lp1780
F0.006944444444444444
asI116
(lp1781
F0.006944444444444444
asI117
(lp1782
F0.006944444444444444
asI118
(lp1783
F0.006944444444444444
asI119
(lp1784
F0.006944444444444444
asI120
(lp1785
F0.006944444444444444
asI121
(lp1786
F0.006944444444444444
asI122
(lp1787
F0.006944444444444444
asI123
(lp1788
F0.006944444444444444
asI124
(lp1789
F0.006944444444444444
asI125
(lp1790
F0.006944444444444444
asI126
(lp1791
F0.006944444444444444
asI127
(lp1792
F0.006944444444444444
asI128
(lp1793
F0.006944444444444444
asI129
(lp1794
F0.006944444444444444
asI130
(lp1795
F0.006944444444444444
asI131
(lp1796
F0.006944444444444444
asI132
(lp1797
F0.006944444444444444
asI133
(lp1798
F0.006944444444444444
asI134
(lp1799
F0.006944444444444444
asI135
(lp1800
F0.006944444444444444
asI136
(lp1801
F0.006944444444444444
asI137
(lp1802
F0.006944444444444444
asI138
(lp1803
F0.006944444444444444
asI139
(lp1804
F0.006944444444444444
asI140
(lp1805
F0.006944444444444444
asI141
(lp1806
F0.006944444444444444
asI142
(lp1807
F0.006944444444444444
asI143
(lp1808
F0.006944444444444444
asI144
(lp1809
F0.006944444444444444
asI145
(lp1810
F0.0
assg164
g13
(g14
tp1811
Rp1812
I1
(lp1813
F1.0
asI2
(lp1814
F1.0
asI3
(lp1815
F1.0
asI4
(lp1816
F1.0
asI5
(lp1817
F1.0
asI6
(lp1818
F1.0
asI7
(lp1819
F0.9930555555555556
asI8
(lp1820
F1.0
asI9
(lp1821
F1.0
asI10
(lp1822
F1.0
asI11
(lp1823
F1.0
asI12
(lp1824
F1.0
asI13
(lp1825
F1.0
asI14
(lp1826
F1.0
asI15
(lp1827
F1.0
asI16
(lp1828
F1.0
asI17
(lp1829
F1.0
asI18
(lp1830
F1.0
asI19
(lp1831
F1.0
asI20
(lp1832
F1.0
asI21
(lp1833
F1.0
asI22
(lp1834
F1.0
asI23
(lp1835
F1.0
asI24
(lp1836
F1.0
asI25
(lp1837
F1.0
asI26
(lp1838
F1.0
asI27
(lp1839
F1.0
asI28
(lp1840
F1.0
asI29
(lp1841
F1.0
asI30
(lp1842
F1.0
asI31
(lp1843
F1.0
asI32
(lp1844
F1.0
asI33
(lp1845
F1.0
asI34
(lp1846
F0.9930555555555556
asI35
(lp1847
F1.0
asI36
(lp1848
F1.0
asI37
(lp1849
F1.0
asI38
(lp1850
F0.9930555555555556
asI39
(lp1851
F1.0
asI40
(lp1852
F1.0
asI41
(lp1853
F1.0
asI42
(lp1854
F1.0
asI43
(lp1855
F0.9930555555555556
asI44
(lp1856
F0.9861111111111112
asI45
(lp1857
F0.9930555555555556
asI46
(lp1858
F1.0
asI47
(lp1859
F1.0
asI48
(lp1860
F1.0
asI49
(lp1861
F1.0
asI50
(lp1862
F1.0
asI51
(lp1863
F1.0
asI52
(lp1864
F1.0
asI53
(lp1865
F1.0
asI54
(lp1866
F0.9930555555555556
asI55
(lp1867
F1.0
asI56
(lp1868
F0.9930555555555556
asI57
(lp1869
F1.0
asI58
(lp1870
F0.027777777777777776
asI59
(lp1871
F1.0
asI60
(lp1872
F0.020833333333333332
asI61
(lp1873
F1.0
asI62
(lp1874
F1.0
asI63
(lp1875
F1.0
asI64
(lp1876
F1.0
asI65
(lp1877
F1.0
asI66
(lp1878
F0.006944444444444444
asI67
(lp1879
F1.0
asI68
(lp1880
F1.0
asI69
(lp1881
F0.013888888888888888
asI70
(lp1882
F1.0
asI71
(lp1883
F1.0
asI72
(lp1884
F0.027777777777777776
asI73
(lp1885
F0.013888888888888888
asI74
(lp1886
F0.006944444444444444
asI75
(lp1887
F1.0
asI76
(lp1888
F0.020833333333333332
asI77
(lp1889
F1.0
asI78
(lp1890
F0.020833333333333332
asI79
(lp1891
F1.0
asI80
(lp1892
F1.0
asI81
(lp1893
F0.020833333333333332
asI82
(lp1894
F1.0
asI83
(lp1895
F1.0
asI84
(lp1896
F0.027777777777777776
asI85
(lp1897
F1.0
asI86
(lp1898
F1.0
asI87
(lp1899
F1.0
asI88
(lp1900
F0.006944444444444444
asI89
(lp1901
F1.0
asI90
(lp1902
F1.0
asI91
(lp1903
F0.013888888888888888
asI92
(lp1904
F0.006944444444444444
asI93
(lp1905
F0.9930555555555556
asI94
(lp1906
F1.0
asI95
(lp1907
F0.013888888888888888
asI96
(lp1908
F1.0
asI97
(lp1909
F0.027777777777777776
asI98
(lp1910
F1.0
asI99
(lp1911
F1.0
asI100
(lp1912
F0.006944444444444444
asI101
(lp1913
F0.006944444444444444
asI102
(lp1914
F0.013888888888888888
asI103
(lp1915
F1.0
asI104
(lp1916
F0.006944444444444444
asI105
(lp1917
F0.013888888888888888
asI106
(lp1918
F1.0
asI107
(lp1919
F0.9930555555555556
asI108
(lp1920
F0.006944444444444444
asI109
(lp1921
F1.0
asI110
(lp1922
F0.006944444444444444
asI111
(lp1923
F1.0
asI112
(lp1924
F0.006944444444444444
asI113
(lp1925
F1.0
asI114
(lp1926
F1.0
asI115
(lp1927
F0.006944444444444444
asI116
(lp1928
F0.006944444444444444
asI117
(lp1929
F0.006944444444444444
asI118
(lp1930
F1.0
asI119
(lp1931
F0.034722222222222224
asI120
(lp1932
F0.013888888888888888
asI121
(lp1933
F0.006944444444444444
asI122
(lp1934
F0.006944444444444444
asI123
(lp1935
F0.013888888888888888
asI124
(lp1936
F0.006944444444444444
asI125
(lp1937
F1.0
asI126
(lp1938
F0.006944444444444444
asI127
(lp1939
F0.013888888888888888
asI128
(lp1940
F0.013888888888888888
asI129
(lp1941
F0.006944444444444444
asI130
(lp1942
F0.006944444444444444
asI131
(lp1943
F0.006944444444444444
asI132
(lp1944
F0.006944444444444444
asI133
(lp1945
F0.006944444444444444
asI134
(lp1946
F0.006944444444444444
asI135
(lp1947
F0.006944444444444444
asI136
(lp1948
F0.013888888888888888
asI137
(lp1949
F0.006944444444444444
asI138
(lp1950
F0.006944444444444444
asI139
(lp1951
F0.006944444444444444
asI140
(lp1952
F0.006944444444444444
asI141
(lp1953
F0.006944444444444444
asI142
(lp1954
F0.006944444444444444
asI143
(lp1955
F0.9930555555555556
asI144
(lp1956
F0.006944444444444444
asI145
(lp1957
F0.0
assg314
g13
(g14
tp1958
Rp1959
I1
(lp1960
F0.9513888888888888
asI2
(lp1961
F0.9305555555555556
asI3
(lp1962
F0.9861111111111112
asI4
(lp1963
F0.9652777777777778
asI5
(lp1964
F0.9791666666666666
asI6
(lp1965
F0.9791666666666666
asI7
(lp1966
F0.9722222222222222
asI8
(lp1967
F0.9791666666666666
asI9
(lp1968
F0.9861111111111112
asI10
(lp1969
F0.9861111111111112
asI11
(lp1970
F0.9930555555555556
asI12
(lp1971
F0.9444444444444444
asI13
(lp1972
F0.9861111111111112
asI14
(lp1973
F0.9930555555555556
asI15
(lp1974
F0.9930555555555556
asI16
(lp1975
F0.9861111111111112
asI17
(lp1976
F0.9861111111111112
asI18
(lp1977
F0.9652777777777778
asI19
(lp1978
F0.9652777777777778
asI20
(lp1979
F0.9375
asI21
(lp1980
F0.9861111111111112
asI22
(lp1981
F0.9652777777777778
asI23
(lp1982
F0.9930555555555556
asI24
(lp1983
F0.9861111111111112
asI25
(lp1984
F0.9861111111111112
asI26
(lp1985
F0.9722222222222222
asI27
(lp1986
F0.9930555555555556
asI28
(lp1987
F0.9583333333333334
asI29
(lp1988
F0.9652777777777778
asI30
(lp1989
F0.9861111111111112
asI31
(lp1990
F0.9791666666666666
asI32
(lp1991
F0.9861111111111112
asI33
(lp1992
F0.9722222222222222
asI34
(lp1993
F0.9722222222222222
asI35
(lp1994
F0.9513888888888888
asI36
(lp1995
F0.11805555555555555
asI37
(lp1996
F0.9791666666666666
asI38
(lp1997
F0.9791666666666666
asI39
(lp1998
F0.013888888888888888
asI40
(lp1999
F0.9652777777777778
asI41
(lp2000
F0.027777777777777776
asI42
(lp2001
F0.9791666666666666
asI43
(lp2002
F0.9722222222222222
asI44
(lp2003
F0.9652777777777778
asI45
(lp2004
F0.9722222222222222
asI46
(lp2005
F0.041666666666666664
asI47
(lp2006
F0.006944444444444444
asI48
(lp2007
F0.06944444444444445
asI49
(lp2008
F0.034722222222222224
asI50
(lp2009
F0.0625
asI51
(lp2010
F0.006944444444444444
asI52
(lp2011
F0.020833333333333332
asI53
(lp2012
F0.9791666666666666
asI54
(lp2013
F0.006944444444444444
asI55
(lp2014
F0.9930555555555556
asI56
(lp2015
F0.006944444444444444
asI57
(lp2016
F0.9861111111111112
asI58
(lp2017
F0.020833333333333332
asI59
(lp2018
F0.9652777777777778
asI60
(lp2019
F0.027777777777777776
asI61
(lp2020
F0.013888888888888888
asI62
(lp2021
F0.006944444444444444
asI63
(lp2022
F0.027777777777777776
asI64
(lp2023
F0.020833333333333332
asI65
(lp2024
F0.9722222222222222
asI66
(lp2025
F0.006944444444444444
asI67
(lp2026
F0.020833333333333332
asI68
(lp2027
F0.09722222222222222
asI69
(lp2028
F0.006944444444444444
asI70
(lp2029
F0.034722222222222224
asI71
(lp2030
F0.9652777777777778
asI72
(lp2031
F0.006944444444444444
asI73
(lp2032
F0.006944444444444444
asI74
(lp2033
F0.006944444444444444
asI75
(lp2034
F0.04861111111111111
asI76
(lp2035
F0.006944444444444444
asI77
(lp2036
F0.9652777777777778
asI78
(lp2037
F0.04861111111111111
asI79
(lp2038
F0.006944444444444444
asI80
(lp2039
F0.9861111111111112
asI81
(lp2040
F0.006944444444444444
asI82
(lp2041
F0.027777777777777776
asI83
(lp2042
F0.006944444444444444
asI84
(lp2043
F0.027777777777777776
asI85
(lp2044
F0.006944444444444444
asI86
(lp2045
F0.020833333333333332
asI87
(lp2046
F0.013888888888888888
asI88
(lp2047
F0.006944444444444444
asI89
(lp2048
F0.013888888888888888
asI90
(lp2049
F0.013888888888888888
asI91
(lp2050
F0.006944444444444444
asI92
(lp2051
F0.006944444444444444
asI93
(lp2052
F0.006944444444444444
asI94
(lp2053
F0.9861111111111112
asI95
(lp2054
F0.013888888888888888
asI96
(lp2055
F0.041666666666666664
asI97
(lp2056
F0.020833333333333332
asI98
(lp2057
F0.006944444444444444
asI99
(lp2058
F0.1111111111111111
asI100
(lp2059
F0.006944444444444444
asI101
(lp2060
F0.006944444444444444
asI102
(lp2061
F0.006944444444444444
asI103
(lp2062
F0.013888888888888888
asI104
(lp2063
F0.013888888888888888
asI105
(lp2064
F0.006944444444444444
asI106
(lp2065
F0.006944444444444444
asI107
(lp2066
F0.006944444444444444
asI108
(lp2067
F0.006944444444444444
asI109
(lp2068
F0.9652777777777778
asI110
(lp2069
F0.006944444444444444
asI111
(lp2070
F0.006944444444444444
asI112
(lp2071
F0.006944444444444444
asI113
(lp2072
F0.9861111111111112
asI114
(lp2073
F0.006944444444444444
asI115
(lp2074
F0.027777777777777776
asI116
(lp2075
F0.006944444444444444
asI117
(lp2076
F0.006944444444444444
asI118
(lp2077
F0.020833333333333332
asI119
(lp2078
F0.006944444444444444
asI120
(lp2079
F0.006944444444444444
asI121
(lp2080
F0.006944444444444444
asI122
(lp2081
F0.006944444444444444
asI123
(lp2082
F0.013888888888888888
asI124
(lp2083
F0.006944444444444444
asI125
(lp2084
F0.013888888888888888
asI126
(lp2085
F0.006944444444444444
asI127
(lp2086
F0.013888888888888888
asI128
(lp2087
F0.006944444444444444
asI129
(lp2088
F0.006944444444444444
asI130
(lp2089
F0.006944444444444444
asI131
(lp2090
F0.006944444444444444
asI132
(lp2091
F0.006944444444444444
asI133
(lp2092
F0.006944444444444444
asI134
(lp2093
F0.006944444444444444
asI135
(lp2094
F0.006944444444444444
asI136
(lp2095
F0.006944444444444444
asI137
(lp2096
F0.006944444444444444
asI138
(lp2097
F0.006944444444444444
asI139
(lp2098
F0.006944444444444444
asI140
(lp2099
F0.006944444444444444
asI141
(lp2100
F0.006944444444444444
asI142
(lp2101
F0.006944444444444444
asI143
(lp2102
F0.006944444444444444
asI144
(lp2103
F0.006944444444444444
asI145
(lp2104
F0.0
assg464
g13
(g14
tp2105
Rp2106
I1
(lp2107
F1.0
asI2
(lp2108
F1.0
asI3
(lp2109
F1.0
asI4
(lp2110
F0.9930555555555556
asI5
(lp2111
F1.0
asI6
(lp2112
F1.0
asI7
(lp2113
F1.0
asI8
(lp2114
F0.9861111111111112
asI9
(lp2115
F1.0
asI10
(lp2116
F1.0
asI11
(lp2117
F0.9861111111111112
asI12
(lp2118
F1.0
asI13
(lp2119
F1.0
asI14
(lp2120
F1.0
asI15
(lp2121
F1.0
asI16
(lp2122
F1.0
asI17
(lp2123
F1.0
asI18
(lp2124
F1.0
asI19
(lp2125
F0.9930555555555556
asI20
(lp2126
F1.0
asI21
(lp2127
F1.0
asI22
(lp2128
F1.0
asI23
(lp2129
F1.0
asI24
(lp2130
F1.0
asI25
(lp2131
F1.0
asI26
(lp2132
F1.0
asI27
(lp2133
F1.0
asI28
(lp2134
F1.0
asI29
(lp2135
F1.0
asI30
(lp2136
F1.0
asI31
(lp2137
F1.0
asI32
(lp2138
F0.9930555555555556
asI33
(lp2139
F0.9930555555555556
asI34
(lp2140
F1.0
asI35
(lp2141
F0.9930555555555556
asI36
(lp2142
F1.0
asI37
(lp2143
F1.0
asI38
(lp2144
F1.0
asI39
(lp2145
F0.020833333333333332
asI40
(lp2146
F0.9930555555555556
asI41
(lp2147
F0.1111111111111111
asI42
(lp2148
F0.9930555555555556
asI43
(lp2149
F0.9930555555555556
asI44
(lp2150
F1.0
asI45
(lp2151
F1.0
asI46
(lp2152
F1.0
asI47
(lp2153
F0.9930555555555556
asI48
(lp2154
F1.0
asI49
(lp2155
F0.9930555555555556
asI50
(lp2156
F1.0
asI51
(lp2157
F0.9861111111111112
asI52
(lp2158
F1.0
asI53
(lp2159
F0.9930555555555556
asI54
(lp2160
F0.9930555555555556
asI55
(lp2161
F1.0
asI56
(lp2162
F0.020833333333333332
asI57
(lp2163
F1.0
asI58
(lp2164
F1.0
asI59
(lp2165
F1.0
asI60
(lp2166
F1.0
asI61
(lp2167
F0.027777777777777776
asI62
(lp2168
F0.013888888888888888
asI63
(lp2169
F0.9930555555555556
asI64
(lp2170
F1.0
asI65
(lp2171
F1.0
asI66
(lp2172
F0.013888888888888888
asI67
(lp2173
F0.05555555555555555
asI68
(lp2174
F0.1111111111111111
asI69
(lp2175
F1.0
asI70
(lp2176
F0.9930555555555556
asI71
(lp2177
F0.020833333333333332
asI72
(lp2178
F0.006944444444444444
asI73
(lp2179
F0.013888888888888888
asI74
(lp2180
F0.006944444444444444
asI75
(lp2181
F0.9930555555555556
asI76
(lp2182
F0.013888888888888888
asI77
(lp2183
F0.9930555555555556
asI78
(lp2184
F0.006944444444444444
asI79
(lp2185
F1.0
asI80
(lp2186
F1.0
asI81
(lp2187
F0.013888888888888888
asI82
(lp2188
F0.9930555555555556
asI83
(lp2189
F0.013888888888888888
asI84
(lp2190
F0.027777777777777776
asI85
(lp2191
F0.013888888888888888
asI86
(lp2192
F0.020833333333333332
asI87
(lp2193
F0.9861111111111112
asI88
(lp2194
F0.041666666666666664
asI89
(lp2195
F1.0
asI90
(lp2196
F1.0
asI91
(lp2197
F0.9930555555555556
asI92
(lp2198
F0.006944444444444444
asI93
(lp2199
F1.0
asI94
(lp2200
F1.0
asI95
(lp2201
F1.0
asI96
(lp2202
F1.0
asI97
(lp2203
F0.013888888888888888
asI98
(lp2204
F0.006944444444444444
asI99
(lp2205
F1.0
asI100
(lp2206
F0.006944444444444444
asI101
(lp2207
F0.006944444444444444
asI102
(lp2208
F0.013888888888888888
asI103
(lp2209
F0.013888888888888888
asI104
(lp2210
F0.013888888888888888
asI105
(lp2211
F0.006944444444444444
asI106
(lp2212
F1.0
asI107
(lp2213
F0.006944444444444444
asI108
(lp2214
F0.006944444444444444
asI109
(lp2215
F1.0
asI110
(lp2216
F0.006944444444444444
asI111
(lp2217
F1.0
asI112
(lp2218
F0.006944444444444444
asI113
(lp2219
F0.013888888888888888
asI114
(lp2220
F1.0
asI115
(lp2221
F0.013888888888888888
asI116
(lp2222
F0.006944444444444444
asI117
(lp2223
F0.006944444444444444
asI118
(lp2224
F0.027777777777777776
asI119
(lp2225
F0.006944444444444444
asI120
(lp2226
F0.013888888888888888
asI121
(lp2227
F0.006944444444444444
asI122
(lp2228
F0.006944444444444444
asI123
(lp2229
F0.006944444444444444
asI124
(lp2230
F0.9930555555555556
asI125
(lp2231
F0.020833333333333332
asI126
(lp2232
F0.006944444444444444
asI127
(lp2233
F0.013888888888888888
asI128
(lp2234
F0.006944444444444444
asI129
(lp2235
F0.006944444444444444
asI130
(lp2236
F0.006944444444444444
asI131
(lp2237
F0.006944444444444444
asI132
(lp2238
F0.006944444444444444
asI133
(lp2239
F0.9861111111111112
asI134
(lp2240
F0.006944444444444444
asI135
(lp2241
F0.006944444444444444
asI136
(lp2242
F0.006944444444444444
asI137
(lp2243
F0.006944444444444444
asI138
(lp2244
F0.006944444444444444
asI139
(lp2245
F0.006944444444444444
asI140
(lp2246
F0.006944444444444444
asI141
(lp2247
F0.006944444444444444
asI142
(lp2248
F0.006944444444444444
asI143
(lp2249
F0.006944444444444444
asI144
(lp2250
F0.006944444444444444
asI145
(lp2251
F0.0
assg614
g13
(g14
tp2252
Rp2253
I1
(lp2254
F1.0
asI2
(lp2255
F1.0
asI3
(lp2256
F1.0
asI4
(lp2257
F1.0
asI5
(lp2258
F1.0
asI6
(lp2259
F1.0
asI7
(lp2260
F1.0
asI8
(lp2261
F1.0
asI9
(lp2262
F1.0
asI10
(lp2263
F1.0
asI11
(lp2264
F1.0
asI12
(lp2265
F1.0
asI13
(lp2266
F1.0
asI14
(lp2267
F1.0
asI15
(lp2268
F1.0
asI16
(lp2269
F1.0
asI17
(lp2270
F1.0
asI18
(lp2271
F1.0
asI19
(lp2272
F1.0
asI20
(lp2273
F1.0
asI21
(lp2274
F1.0
asI22
(lp2275
F1.0
asI23
(lp2276
F1.0
asI24
(lp2277
F1.0
asI25
(lp2278
F1.0
asI26
(lp2279
F1.0
asI27
(lp2280
F1.0
asI28
(lp2281
F1.0
asI29
(lp2282
F1.0
asI30
(lp2283
F1.0
asI31
(lp2284
F1.0
asI32
(lp2285
F1.0
asI33
(lp2286
F1.0
asI34
(lp2287
F1.0
asI35
(lp2288
F1.0
asI36
(lp2289
F1.0
asI37
(lp2290
F1.0
asI38
(lp2291
F1.0
asI39
(lp2292
F1.0
asI40
(lp2293
F1.0
asI41
(lp2294
F1.0
asI42
(lp2295
F1.0
asI43
(lp2296
F1.0
asI44
(lp2297
F1.0
asI45
(lp2298
F1.0
asI46
(lp2299
F1.0
asI47
(lp2300
F1.0
asI48
(lp2301
F1.0
asI49
(lp2302
F1.0
asI50
(lp2303
F1.0
asI51
(lp2304
F1.0
asI52
(lp2305
F1.0
asI53
(lp2306
F1.0
asI54
(lp2307
F1.0
asI55
(lp2308
F1.0
asI56
(lp2309
F1.0
asI57
(lp2310
F1.0
asI58
(lp2311
F1.0
asI59
(lp2312
F1.0
asI60
(lp2313
F1.0
asI61
(lp2314
F1.0
asI62
(lp2315
F1.0
asI63
(lp2316
F1.0
asI64
(lp2317
F1.0
asI65
(lp2318
F1.0
asI66
(lp2319
F1.0
asI67
(lp2320
F1.0
asI68
(lp2321
F1.0
asI69
(lp2322
F1.0
asI70
(lp2323
F1.0
asI71
(lp2324
F1.0
asI72
(lp2325
F1.0
asI73
(lp2326
F1.0
asI74
(lp2327
F0.006944444444444444
asI75
(lp2328
F1.0
asI76
(lp2329
F0.020833333333333332
asI77
(lp2330
F1.0
asI78
(lp2331
F1.0
asI79
(lp2332
F1.0
asI80
(lp2333
F1.0
asI81
(lp2334
F1.0
asI82
(lp2335
F1.0
asI83
(lp2336
F1.0
asI84
(lp2337
F1.0
asI85
(lp2338
F1.0
asI86
(lp2339
F1.0
asI87
(lp2340
F1.0
asI88
(lp2341
F1.0
asI89
(lp2342
F1.0
asI90
(lp2343
F1.0
asI91
(lp2344
F1.0
asI92
(lp2345
F1.0
asI93
(lp2346
F1.0
asI94
(lp2347
F1.0
asI95
(lp2348
F1.0
asI96
(lp2349
F1.0
asI97
(lp2350
F1.0
asI98
(lp2351
F1.0
asI99
(lp2352
F1.0
asI100
(lp2353
F0.020833333333333332
asI101
(lp2354
F0.006944444444444444
asI102
(lp2355
F1.0
asI103
(lp2356
F1.0
asI104
(lp2357
F0.020833333333333332
asI105
(lp2358
F1.0
asI106
(lp2359
F1.0
asI107
(lp2360
F1.0
asI108
(lp2361
F0.006944444444444444
asI109
(lp2362
F1.0
asI110
(lp2363
F1.0
asI111
(lp2364
F1.0
asI112
(lp2365
F0.006944444444444444
asI113
(lp2366
F1.0
asI114
(lp2367
F1.0
asI115
(lp2368
F1.0
asI116
(lp2369
F0.006944444444444444
asI117
(lp2370
F0.006944444444444444
asI118
(lp2371
F1.0
asI119
(lp2372
F1.0
asI120
(lp2373
F0.013888888888888888
asI121
(lp2374
F0.006944444444444444
asI122
(lp2375
F1.0
asI123
(lp2376
F1.0
asI124
(lp2377
F1.0
asI125
(lp2378
F1.0
asI126
(lp2379
F0.006944444444444444
asI127
(lp2380
F0.013888888888888888
asI128
(lp2381
F0.013888888888888888
asI129
(lp2382
F0.006944444444444444
asI130
(lp2383
F0.006944444444444444
asI131
(lp2384
F0.006944444444444444
asI132
(lp2385
F0.006944444444444444
asI133
(lp2386
F1.0
asI134
(lp2387
F0.006944444444444444
asI135
(lp2388
F0.006944444444444444
asI136
(lp2389
F0.020833333333333332
asI137
(lp2390
F0.006944444444444444
asI138
(lp2391
F0.006944444444444444
asI139
(lp2392
F0.006944444444444444
asI140
(lp2393
F0.006944444444444444
asI141
(lp2394
F0.006944444444444444
asI142
(lp2395
F0.006944444444444444
asI143
(lp2396
F1.0
asI144
(lp2397
F0.006944444444444444
asI145
(lp2398
F0.0
assg764
g13
(g14
tp2399
Rp2400
I1
(lp2401
F1.0
asI2
(lp2402
F1.0
asI3
(lp2403
F1.0
asI4
(lp2404
F1.0
asI5
(lp2405
F1.0
asI6
(lp2406
F1.0
asI7
(lp2407
F1.0
asI8
(lp2408
F1.0
asI9
(lp2409
F1.0
asI10
(lp2410
F1.0
asI11
(lp2411
F1.0
asI12
(lp2412
F1.0
asI13
(lp2413
F1.0
asI14
(lp2414
F1.0
asI15
(lp2415
F1.0
asI16
(lp2416
F1.0
asI17
(lp2417
F1.0
asI18
(lp2418
F1.0
asI19
(lp2419
F1.0
asI20
(lp2420
F1.0
asI21
(lp2421
F1.0
asI22
(lp2422
F1.0
asI23
(lp2423
F1.0
asI24
(lp2424
F1.0
asI25
(lp2425
F1.0
asI26
(lp2426
F1.0
asI27
(lp2427
F1.0
asI28
(lp2428
F1.0
asI29
(lp2429
F1.0
asI30
(lp2430
F1.0
asI31
(lp2431
F1.0
asI32
(lp2432
F1.0
asI33
(lp2433
F1.0
asI34
(lp2434
F1.0
asI35
(lp2435
F1.0
asI36
(lp2436
F1.0
asI37
(lp2437
F1.0
asI38
(lp2438
F1.0
asI39
(lp2439
F1.0
asI40
(lp2440
F1.0
asI41
(lp2441
F1.0
asI42
(lp2442
F1.0
asI43
(lp2443
F0.027777777777777776
asI44
(lp2444
F1.0
asI45
(lp2445
F1.0
asI46
(lp2446
F1.0
asI47
(lp2447
F1.0
asI48
(lp2448
F1.0
asI49
(lp2449
F1.0
asI50
(lp2450
F1.0
asI51
(lp2451
F1.0
asI52
(lp2452
F1.0
asI53
(lp2453
F1.0
asI54
(lp2454
F1.0
asI55
(lp2455
F1.0
asI56
(lp2456
F0.9930555555555556
asI57
(lp2457
F1.0
asI58
(lp2458
F1.0
asI59
(lp2459
F1.0
asI60
(lp2460
F1.0
asI61
(lp2461
F1.0
asI62
(lp2462
F1.0
asI63
(lp2463
F1.0
asI64
(lp2464
F1.0
asI65
(lp2465
F1.0
asI66
(lp2466
F0.013888888888888888
asI67
(lp2467
F1.0
asI68
(lp2468
F1.0
asI69
(lp2469
F1.0
asI70
(lp2470
F1.0
asI71
(lp2471
F1.0
asI72
(lp2472
F1.0
asI73
(lp2473
F1.0
asI74
(lp2474
F0.006944444444444444
asI75
(lp2475
F1.0
asI76
(lp2476
F0.020833333333333332
asI77
(lp2477
F1.0
asI78
(lp2478
F0.034722222222222224
asI79
(lp2479
F1.0
asI80
(lp2480
F1.0
asI81
(lp2481
F1.0
asI82
(lp2482
F1.0
asI83
(lp2483
F1.0
asI84
(lp2484
F0.041666666666666664
asI85
(lp2485
F1.0
asI86
(lp2486
F1.0
asI87
(lp2487
F1.0
asI88
(lp2488
F1.0
asI89
(lp2489
F1.0
asI90
(lp2490
F1.0
asI91
(lp2491
F1.0
asI92
(lp2492
F1.0
asI93
(lp2493
F1.0
asI94
(lp2494
F1.0
asI95
(lp2495
F0.006944444444444444
asI96
(lp2496
F1.0
asI97
(lp2497
F1.0
asI98
(lp2498
F1.0
asI99
(lp2499
F1.0
asI100
(lp2500
F0.020833333333333332
asI101
(lp2501
F0.006944444444444444
asI102
(lp2502
F0.013888888888888888
asI103
(lp2503
F1.0
asI104
(lp2504
F0.020833333333333332
asI105
(lp2505
F1.0
asI106
(lp2506
F1.0
asI107
(lp2507
F0.020833333333333332
asI108
(lp2508
F0.006944444444444444
asI109
(lp2509
F1.0
asI110
(lp2510
F1.0
asI111
(lp2511
F0.006944444444444444
asI112
(lp2512
F0.006944444444444444
asI113
(lp2513
F1.0
asI114
(lp2514
F1.0
asI115
(lp2515
F1.0
asI116
(lp2516
F0.006944444444444444
asI117
(lp2517
F0.006944444444444444
asI118
(lp2518
F1.0
asI119
(lp2519
F1.0
asI120
(lp2520
F0.006944444444444444
asI121
(lp2521
F0.006944444444444444
asI122
(lp2522
F1.0
asI123
(lp2523
F0.013888888888888888
asI124
(lp2524
F1.0
asI125
(lp2525
F1.0
asI126
(lp2526
F0.006944444444444444
asI127
(lp2527
F0.013888888888888888
asI128
(lp2528
F0.013888888888888888
asI129
(lp2529
F0.006944444444444444
asI130
(lp2530
F0.006944444444444444
asI131
(lp2531
F0.006944444444444444
asI132
(lp2532
F0.006944444444444444
asI133
(lp2533
F0.006944444444444444
asI134
(lp2534
F0.006944444444444444
asI135
(lp2535
F0.006944444444444444
asI136
(lp2536
F0.013888888888888888
asI137
(lp2537
F0.006944444444444444
asI138
(lp2538
F0.006944444444444444
asI139
(lp2539
F0.006944444444444444
asI140
(lp2540
F0.006944444444444444
asI141
(lp2541
F0.006944444444444444
asI142
(lp2542
F0.006944444444444444
asI143
(lp2543
F0.006944444444444444
asI144
(lp2544
F0.006944444444444444
asI145
(lp2545
F0.0
assg914
g13
(g14
tp2546
Rp2547
I1
(lp2548
F1.0
asI2
(lp2549
F1.0
asI3
(lp2550
F0.9930555555555556
asI4
(lp2551
F1.0
asI5
(lp2552
F1.0
asI6
(lp2553
F1.0
asI7
(lp2554
F1.0
asI8
(lp2555
F1.0
asI9
(lp2556
F0.9930555555555556
asI10
(lp2557
F1.0
asI11
(lp2558
F1.0
asI12
(lp2559
F1.0
asI13
(lp2560
F1.0
asI14
(lp2561
F1.0
asI15
(lp2562
F1.0
asI16
(lp2563
F1.0
asI17
(lp2564
F1.0
asI18
(lp2565
F1.0
asI19
(lp2566
F1.0
asI20
(lp2567
F1.0
asI21
(lp2568
F1.0
asI22
(lp2569
F1.0
asI23
(lp2570
F1.0
asI24
(lp2571
F1.0
asI25
(lp2572
F1.0
asI26
(lp2573
F1.0
asI27
(lp2574
F1.0
asI28
(lp2575
F1.0
asI29
(lp2576
F1.0
asI30
(lp2577
F1.0
asI31
(lp2578
F1.0
asI32
(lp2579
F1.0
asI33
(lp2580
F1.0
asI34
(lp2581
F1.0
asI35
(lp2582
F1.0
asI36
(lp2583
F1.0
asI37
(lp2584
F1.0
asI38
(lp2585
F1.0
asI39
(lp2586
F1.0
asI40
(lp2587
F1.0
asI41
(lp2588
F1.0
asI42
(lp2589
F1.0
asI43
(lp2590
F1.0
asI44
(lp2591
F1.0
asI45
(lp2592
F1.0
asI46
(lp2593
F0.9930555555555556
asI47
(lp2594
F1.0
asI48
(lp2595
F1.0
asI49
(lp2596
F1.0
asI50
(lp2597
F1.0
asI51
(lp2598
F1.0
asI52
(lp2599
F1.0
asI53
(lp2600
F0.027777777777777776
asI54
(lp2601
F1.0
asI55
(lp2602
F1.0
asI56
(lp2603
F1.0
asI57
(lp2604
F1.0
asI58
(lp2605
F1.0
asI59
(lp2606
F1.0
asI60
(lp2607
F1.0
asI61
(lp2608
F1.0
asI62
(lp2609
F1.0
asI63
(lp2610
F1.0
asI64
(lp2611
F0.9930555555555556
asI65
(lp2612
F1.0
asI66
(lp2613
F0.006944444444444444
asI67
(lp2614
F1.0
asI68
(lp2615
F1.0
asI69
(lp2616
F1.0
asI70
(lp2617
F1.0
asI71
(lp2618
F1.0
asI72
(lp2619
F0.013888888888888888
asI73
(lp2620
F0.020833333333333332
asI74
(lp2621
F0.006944444444444444
asI75
(lp2622
F1.0
asI76
(lp2623
F0.020833333333333332
asI77
(lp2624
F1.0
asI78
(lp2625
F1.0
asI79
(lp2626
F1.0
asI80
(lp2627
F1.0
asI81
(lp2628
F1.0
asI82
(lp2629
F1.0
asI83
(lp2630
F0.04861111111111111
asI84
(lp2631
F0.034722222222222224
asI85
(lp2632
F1.0
asI86
(lp2633
F1.0
asI87
(lp2634
F1.0
asI88
(lp2635
F0.013888888888888888
asI89
(lp2636
F1.0
asI90
(lp2637
F1.0
asI91
(lp2638
F0.006944444444444444
asI92
(lp2639
F1.0
asI93
(lp2640
F1.0
asI94
(lp2641
F1.0
asI95
(lp2642
F0.013888888888888888
asI96
(lp2643
F1.0
asI97
(lp2644
F1.0
asI98
(lp2645
F0.006944444444444444
asI99
(lp2646
F1.0
asI100
(lp2647
F0.013888888888888888
asI101
(lp2648
F0.006944444444444444
asI102
(lp2649
F1.0
asI103
(lp2650
F1.0
asI104
(lp2651
F0.020833333333333332
asI105
(lp2652
F0.013888888888888888
asI106
(lp2653
F1.0
asI107
(lp2654
F1.0
asI108
(lp2655
F0.006944444444444444
asI109
(lp2656
F1.0
asI110
(lp2657
F1.0
asI111
(lp2658
F0.006944444444444444
asI112
(lp2659
F0.006944444444444444
asI113
(lp2660
F1.0
asI114
(lp2661
F1.0
asI115
(lp2662
F0.041666666666666664
asI116
(lp2663
F0.006944444444444444
asI117
(lp2664
F0.006944444444444444
asI118
(lp2665
F0.013888888888888888
asI119
(lp2666
F1.0
asI120
(lp2667
F0.013888888888888888
asI121
(lp2668
F0.006944444444444444
asI122
(lp2669
F1.0
asI123
(lp2670
F0.013888888888888888
asI124
(lp2671
F0.013888888888888888
asI125
(lp2672
F0.027777777777777776
asI126
(lp2673
F0.006944444444444444
asI127
(lp2674
F0.013888888888888888
asI128
(lp2675
F0.013888888888888888
asI129
(lp2676
F0.006944444444444444
asI130
(lp2677
F0.006944444444444444
asI131
(lp2678
F0.006944444444444444
asI132
(lp2679
F0.006944444444444444
asI133
(lp2680
F1.0
asI134
(lp2681
F0.006944444444444444
asI135
(lp2682
F0.006944444444444444
asI136
(lp2683
F0.020833333333333332
asI137
(lp2684
F0.006944444444444444
asI138
(lp2685
F0.006944444444444444
asI139
(lp2686
F0.006944444444444444
asI140
(lp2687
F0.006944444444444444
asI141
(lp2688
F0.006944444444444444
asI142
(lp2689
F0.006944444444444444
asI143
(lp2690
F1.0
asI144
(lp2691
F0.006944444444444444
asI145
(lp2692
F0.0
assg1064
g13
(g14
tp2693
Rp2694
I1
(lp2695
F0.9861111111111112
asI2
(lp2696
F1.0
asI3
(lp2697
F0.9930555555555556
asI4
(lp2698
F0.9861111111111112
asI5
(lp2699
F0.9930555555555556
asI6
(lp2700
F0.9861111111111112
asI7
(lp2701
F1.0
asI8
(lp2702
F0.9930555555555556
asI9
(lp2703
F0.9930555555555556
asI10
(lp2704
F1.0
asI11
(lp2705
F0.9861111111111112
asI12
(lp2706
F0.9930555555555556
asI13
(lp2707
F0.9930555555555556
asI14
(lp2708
F0.9930555555555556
asI15
(lp2709
F0.9861111111111112
asI16
(lp2710
F0.9930555555555556
asI17
(lp2711
F1.0
asI18
(lp2712
F0.9861111111111112
asI19
(lp2713
F0.9861111111111112
asI20
(lp2714
F0.9930555555555556
asI21
(lp2715
F1.0
asI22
(lp2716
F0.9930555555555556
asI23
(lp2717
F0.9791666666666666
asI24
(lp2718
F0.9930555555555556
asI25
(lp2719
F0.9791666666666666
asI26
(lp2720
F0.9861111111111112
asI27
(lp2721
F0.9791666666666666
asI28
(lp2722
F1.0
asI29
(lp2723
F1.0
asI30
(lp2724
F0.9861111111111112
asI31
(lp2725
F0.9861111111111112
asI32
(lp2726
F1.0
asI33
(lp2727
F0.9930555555555556
asI34
(lp2728
F1.0
asI35
(lp2729
F1.0
asI36
(lp2730
F0.9930555555555556
asI37
(lp2731
F0.9861111111111112
asI38
(lp2732
F0.9930555555555556
asI39
(lp2733
F1.0
asI40
(lp2734
F0.9861111111111112
asI41
(lp2735
F0.9930555555555556
asI42
(lp2736
F0.9930555555555556
asI43
(lp2737
F0.9930555555555556
asI44
(lp2738
F0.9861111111111112
asI45
(lp2739
F0.013888888888888888
asI46
(lp2740
F0.9791666666666666
asI47
(lp2741
F0.9791666666666666
asI48
(lp2742
F0.9930555555555556
asI49
(lp2743
F0.9930555555555556
asI50
(lp2744
F1.0
asI51
(lp2745
F0.9861111111111112
asI52
(lp2746
F0.9930555555555556
asI53
(lp2747
F0.9930555555555556
asI54
(lp2748
F1.0
asI55
(lp2749
F0.9930555555555556
asI56
(lp2750
F0.9861111111111112
asI57
(lp2751
F0.9930555555555556
asI58
(lp2752
F0.041666666666666664
asI59
(lp2753
F0.09722222222222222
asI60
(lp2754
F0.020833333333333332
asI61
(lp2755
F0.9930555555555556
asI62
(lp2756
F1.0
asI63
(lp2757
F0.9930555555555556
asI64
(lp2758
F0.020833333333333332
asI65
(lp2759
F0.9930555555555556
asI66
(lp2760
F0.013888888888888888
asI67
(lp2761
F0.020833333333333332
asI68
(lp2762
F0.04861111111111111
asI69
(lp2763
F1.0
asI70
(lp2764
F0.9861111111111112
asI71
(lp2765
F1.0
asI72
(lp2766
F0.006944444444444444
asI73
(lp2767
F0.006944444444444444
asI74
(lp2768
F0.006944444444444444
asI75
(lp2769
F0.9861111111111112
asI76
(lp2770
F0.013888888888888888
asI77
(lp2771
F0.9930555555555556
asI78
(lp2772
F0.041666666666666664
asI79
(lp2773
F0.006944444444444444
asI80
(lp2774
F0.9930555555555556
asI81
(lp2775
F0.013888888888888888
asI82
(lp2776
F0.006944444444444444
asI83
(lp2777
F0.020833333333333332
asI84
(lp2778
F0.013888888888888888
asI85
(lp2779
F0.020833333333333332
asI86
(lp2780
F1.0
asI87
(lp2781
F0.006944444444444444
asI88
(lp2782
F0.006944444444444444
asI89
(lp2783
F0.013888888888888888
asI90
(lp2784
F0.9930555555555556
asI91
(lp2785
F0.006944444444444444
asI92
(lp2786
F0.013888888888888888
asI93
(lp2787
F0.006944444444444444
asI94
(lp2788
F0.013888888888888888
asI95
(lp2789
F0.006944444444444444
asI96
(lp2790
F0.034722222222222224
asI97
(lp2791
F0.9930555555555556
asI98
(lp2792
F0.006944444444444444
asI99
(lp2793
F0.9930555555555556
asI100
(lp2794
F0.006944444444444444
asI101
(lp2795
F0.006944444444444444
asI102
(lp2796
F0.006944444444444444
asI103
(lp2797
F0.020833333333333332
asI104
(lp2798
F0.020833333333333332
asI105
(lp2799
F0.013888888888888888
asI106
(lp2800
F0.006944444444444444
asI107
(lp2801
F0.006944444444444444
asI108
(lp2802
F0.006944444444444444
asI109
(lp2803
F1.0
asI110
(lp2804
F0.006944444444444444
asI111
(lp2805
F0.006944444444444444
asI112
(lp2806
F0.006944444444444444
asI113
(lp2807
F1.0
asI114
(lp2808
F0.013888888888888888
asI115
(lp2809
F0.020833333333333332
asI116
(lp2810
F0.006944444444444444
asI117
(lp2811
F0.006944444444444444
asI118
(lp2812
F0.006944444444444444
asI119
(lp2813
F0.006944444444444444
asI120
(lp2814
F0.006944444444444444
asI121
(lp2815
F0.006944444444444444
asI122
(lp2816
F0.006944444444444444
asI123
(lp2817
F0.006944444444444444
asI124
(lp2818
F0.9861111111111112
asI125
(lp2819
F0.013888888888888888
asI126
(lp2820
F0.006944444444444444
asI127
(lp2821
F0.013888888888888888
asI128
(lp2822
F0.006944444444444444
asI129
(lp2823
F0.006944444444444444
asI130
(lp2824
F0.006944444444444444
asI131
(lp2825
F0.006944444444444444
asI132
(lp2826
F0.006944444444444444
asI133
(lp2827
F0.006944444444444444
asI134
(lp2828
F0.006944444444444444
asI135
(lp2829
F0.006944444444444444
asI136
(lp2830
F0.006944444444444444
asI137
(lp2831
F0.006944444444444444
asI138
(lp2832
F0.006944444444444444
asI139
(lp2833
F0.006944444444444444
asI140
(lp2834
F0.006944444444444444
asI141
(lp2835
F0.006944444444444444
asI142
(lp2836
F0.006944444444444444
asI143
(lp2837
F1.0
asI144
(lp2838
F0.006944444444444444
asI145
(lp2839
F0.0
assg1214
g13
(g14
tp2840
Rp2841
I1
(lp2842
F0.8541666666666666
asI2
(lp2843
F0.9236111111111112
asI3
(lp2844
F0.875
asI4
(lp2845
F0.9097222222222222
asI5
(lp2846
F0.8611111111111112
asI6
(lp2847
F0.9027777777777778
asI7
(lp2848
F0.8958333333333334
asI8
(lp2849
F0.8541666666666666
asI9
(lp2850
F0.8958333333333334
asI10
(lp2851
F0.9097222222222222
asI11
(lp2852
F0.9027777777777778
asI12
(lp2853
F0.8263888888888888
asI13
(lp2854
F0.8541666666666666
asI14
(lp2855
F0.9097222222222222
asI15
(lp2856
F0.041666666666666664
asI16
(lp2857
F0.0763888888888889
asI17
(lp2858
F0.875
asI18
(lp2859
F0.9027777777777778
asI19
(lp2860
F0.8680555555555556
asI20
(lp2861
F0.8958333333333334
asI21
(lp2862
F0.04861111111111111
asI22
(lp2863
F0.006944444444444444
asI23
(lp2864
F0.875
asI24
(lp2865
F0.9166666666666666
asI25
(lp2866
F0.9236111111111112
asI26
(lp2867
F0.006944444444444444
asI27
(lp2868
F0.8958333333333334
asI28
(lp2869
F0.020833333333333332
asI29
(lp2870
F0.8680555555555556
asI30
(lp2871
F0.027777777777777776
asI31
(lp2872
F0.04861111111111111
asI32
(lp2873
F0.020833333333333332
asI33
(lp2874
F0.8888888888888888
asI34
(lp2875
F0.006944444444444444
asI35
(lp2876
F0.027777777777777776
asI36
(lp2877
F0.8680555555555556
asI37
(lp2878
F0.006944444444444444
asI38
(lp2879
F0.006944444444444444
asI39
(lp2880
F0.020833333333333332
asI40
(lp2881
F0.8402777777777778
asI41
(lp2882
F0.027777777777777776
asI42
(lp2883
F0.013888888888888888
asI43
(lp2884
F0.125
asI44
(lp2885
F0.04861111111111111
asI45
(lp2886
F0.006944444444444444
asI46
(lp2887
F0.04861111111111111
asI47
(lp2888
F0.006944444444444444
asI48
(lp2889
F0.9166666666666666
asI49
(lp2890
F0.09027777777777778
asI50
(lp2891
F0.013888888888888888
asI51
(lp2892
F0.027777777777777776
asI52
(lp2893
F0.006944444444444444
asI53
(lp2894
F0.013888888888888888
asI54
(lp2895
F0.006944444444444444
asI55
(lp2896
F0.006944444444444444
asI56
(lp2897
F0.006944444444444444
asI57
(lp2898
F0.9097222222222222
asI58
(lp2899
F0.013888888888888888
asI59
(lp2900
F0.8680555555555556
asI60
(lp2901
F0.006944444444444444
asI61
(lp2902
F0.006944444444444444
asI62
(lp2903
F0.006944444444444444
asI63
(lp2904
F0.020833333333333332
asI64
(lp2905
F0.013888888888888888
asI65
(lp2906
F0.006944444444444444
asI66
(lp2907
F0.006944444444444444
asI67
(lp2908
F0.013888888888888888
asI68
(lp2909
F0.013888888888888888
asI69
(lp2910
F0.006944444444444444
asI70
(lp2911
F0.875
asI71
(lp2912
F0.013888888888888888
asI72
(lp2913
F0.006944444444444444
asI73
(lp2914
F0.013888888888888888
asI74
(lp2915
F0.006944444444444444
asI75
(lp2916
F0.013888888888888888
asI76
(lp2917
F0.006944444444444444
asI77
(lp2918
F0.8888888888888888
asI78
(lp2919
F0.006944444444444444
asI79
(lp2920
F0.006944444444444444
asI80
(lp2921
F0.006944444444444444
asI81
(lp2922
F0.006944444444444444
asI82
(lp2923
F0.013888888888888888
asI83
(lp2924
F0.006944444444444444
asI84
(lp2925
F0.006944444444444444
asI85
(lp2926
F0.020833333333333332
asI86
(lp2927
F0.006944444444444444
asI87
(lp2928
F0.006944444444444444
asI88
(lp2929
F0.006944444444444444
asI89
(lp2930
F0.013888888888888888
asI90
(lp2931
F0.006944444444444444
asI91
(lp2932
F0.013888888888888888
asI92
(lp2933
F0.006944444444444444
asI93
(lp2934
F0.006944444444444444
asI94
(lp2935
F0.006944444444444444
asI95
(lp2936
F0.006944444444444444
asI96
(lp2937
F0.006944444444444444
asI97
(lp2938
F0.006944444444444444
asI98
(lp2939
F0.027777777777777776
asI99
(lp2940
F0.006944444444444444
asI100
(lp2941
F0.013888888888888888
asI101
(lp2942
F0.006944444444444444
asI102
(lp2943
F0.006944444444444444
asI103
(lp2944
F0.006944444444444444
asI104
(lp2945
F0.006944444444444444
asI105
(lp2946
F0.006944444444444444
asI106
(lp2947
F0.006944444444444444
asI107
(lp2948
F0.006944444444444444
asI108
(lp2949
F0.006944444444444444
asI109
(lp2950
F0.013888888888888888
asI110
(lp2951
F0.006944444444444444
asI111
(lp2952
F0.006944444444444444
asI112
(lp2953
F0.006944444444444444
asI113
(lp2954
F0.006944444444444444
asI114
(lp2955
F0.006944444444444444
asI115
(lp2956
F0.006944444444444444
asI116
(lp2957
F0.006944444444444444
asI117
(lp2958
F0.006944444444444444
asI118
(lp2959
F0.013888888888888888
asI119
(lp2960
F0.006944444444444444
asI120
(lp2961
F0.006944444444444444
asI121
(lp2962
F0.006944444444444444
asI122
(lp2963
F0.006944444444444444
asI123
(lp2964
F0.006944444444444444
asI124
(lp2965
F0.006944444444444444
asI125
(lp2966
F0.006944444444444444
asI126
(lp2967
F0.006944444444444444
asI127
(lp2968
F0.013888888888888888
asI128
(lp2969
F0.013888888888888888
asI129
(lp2970
F0.006944444444444444
asI130
(lp2971
F0.006944444444444444
asI131
(lp2972
F0.006944444444444444
asI132
(lp2973
F0.006944444444444444
asI133
(lp2974
F0.006944444444444444
asI134
(lp2975
F0.006944444444444444
asI135
(lp2976
F0.006944444444444444
asI136
(lp2977
F0.006944444444444444
asI137
(lp2978
F0.006944444444444444
asI138
(lp2979
F0.006944444444444444
asI139
(lp2980
F0.006944444444444444
asI140
(lp2981
F0.006944444444444444
asI141
(lp2982
F0.006944444444444444
asI142
(lp2983
F0.006944444444444444
asI143
(lp2984
F0.006944444444444444
asI144
(lp2985
F0.006944444444444444
asI145
(lp2986
F0.0
assg1364
g13
(g14
tp2987
Rp2988
I1
(lp2989
F1.0
asI2
(lp2990
F1.0
asI3
(lp2991
F1.0
asI4
(lp2992
F1.0
asI5
(lp2993
F1.0
asI6
(lp2994
F1.0
asI7
(lp2995
F1.0
asI8
(lp2996
F1.0
asI9
(lp2997
F1.0
asI10
(lp2998
F1.0
asI11
(lp2999
F1.0
asI12
(lp3000
F1.0
asI13
(lp3001
F1.0
asI14
(lp3002
F1.0
asI15
(lp3003
F1.0
asI16
(lp3004
F1.0
asI17
(lp3005
F1.0
asI18
(lp3006
F1.0
asI19
(lp3007
F1.0
asI20
(lp3008
F1.0
asI21
(lp3009
F1.0
asI22
(lp3010
F1.0
asI23
(lp3011
F1.0
asI24
(lp3012
F1.0
asI25
(lp3013
F1.0
asI26
(lp3014
F1.0
asI27
(lp3015
F1.0
asI28
(lp3016
F1.0
asI29
(lp3017
F1.0
asI30
(lp3018
F1.0
asI31
(lp3019
F1.0
asI32
(lp3020
F1.0
asI33
(lp3021
F1.0
asI34
(lp3022
F1.0
asI35
(lp3023
F1.0
asI36
(lp3024
F1.0
asI37
(lp3025
F1.0
asI38
(lp3026
F1.0
asI39
(lp3027
F1.0
asI40
(lp3028
F1.0
asI41
(lp3029
F1.0
asI42
(lp3030
F1.0
asI43
(lp3031
F1.0
asI44
(lp3032
F1.0
asI45
(lp3033
F1.0
asI46
(lp3034
F1.0
asI47
(lp3035
F1.0
asI48
(lp3036
F1.0
asI49
(lp3037
F1.0
asI50
(lp3038
F1.0
asI51
(lp3039
F1.0
asI52
(lp3040
F1.0
asI53
(lp3041
F1.0
asI54
(lp3042
F1.0
asI55
(lp3043
F1.0
asI56
(lp3044
F1.0
asI57
(lp3045
F1.0
asI58
(lp3046
F1.0
asI59
(lp3047
F1.0
asI60
(lp3048
F1.0
asI61
(lp3049
F1.0
asI62
(lp3050
F1.0
asI63
(lp3051
F1.0
asI64
(lp3052
F1.0
asI65
(lp3053
F1.0
asI66
(lp3054
F1.0
asI67
(lp3055
F1.0
asI68
(lp3056
F1.0
asI69
(lp3057
F1.0
asI70
(lp3058
F1.0
asI71
(lp3059
F1.0
asI72
(lp3060
F1.0
asI73
(lp3061
F1.0
asI74
(lp3062
F0.006944444444444444
asI75
(lp3063
F1.0
asI76
(lp3064
F0.020833333333333332
asI77
(lp3065
F1.0
asI78
(lp3066
F1.0
asI79
(lp3067
F1.0
asI80
(lp3068
F1.0
asI81
(lp3069
F1.0
asI82
(lp3070
F1.0
asI83
(lp3071
F1.0
asI84
(lp3072
F1.0
asI85
(lp3073
F1.0
asI86
(lp3074
F1.0
asI87
(lp3075
F1.0
asI88
(lp3076
F0.013888888888888888
asI89
(lp3077
F1.0
asI90
(lp3078
F1.0
asI91
(lp3079
F1.0
asI92
(lp3080
F1.0
asI93
(lp3081
F1.0
asI94
(lp3082
F1.0
asI95
(lp3083
F1.0
asI96
(lp3084
F1.0
asI97
(lp3085
F1.0
asI98
(lp3086
F1.0
asI99
(lp3087
F1.0
asI100
(lp3088
F0.020833333333333332
asI101
(lp3089
F0.006944444444444444
asI102
(lp3090
F1.0
asI103
(lp3091
F0.013888888888888888
asI104
(lp3092
F0.020833333333333332
asI105
(lp3093
F1.0
asI106
(lp3094
F1.0
asI107
(lp3095
F0.013888888888888888
asI108
(lp3096
F0.006944444444444444
asI109
(lp3097
F1.0
asI110
(lp3098
F0.006944444444444444
asI111
(lp3099
F1.0
asI112
(lp3100
F0.006944444444444444
asI113
(lp3101
F1.0
asI114
(lp3102
F1.0
asI115
(lp3103
F1.0
asI116
(lp3104
F0.006944444444444444
asI117
(lp3105
F0.006944444444444444
asI118
(lp3106
F1.0
asI119
(lp3107
F1.0
asI120
(lp3108
F0.013888888888888888
asI121
(lp3109
F0.006944444444444444
asI122
(lp3110
F1.0
asI123
(lp3111
F1.0
asI124
(lp3112
F1.0
asI125
(lp3113
F1.0
asI126
(lp3114
F0.006944444444444444
asI127
(lp3115
F0.013888888888888888
asI128
(lp3116
F0.013888888888888888
asI129
(lp3117
F0.006944444444444444
asI130
(lp3118
F0.006944444444444444
asI131
(lp3119
F0.006944444444444444
asI132
(lp3120
F0.006944444444444444
asI133
(lp3121
F0.006944444444444444
asI134
(lp3122
F0.006944444444444444
asI135
(lp3123
F0.006944444444444444
asI136
(lp3124
F0.020833333333333332
asI137
(lp3125
F0.006944444444444444
asI138
(lp3126
F0.006944444444444444
asI139
(lp3127
F0.006944444444444444
asI140
(lp3128
F0.006944444444444444
asI141
(lp3129
F0.006944444444444444
asI142
(lp3130
F0.006944444444444444
asI143
(lp3131
F1.0
asI144
(lp3132
F0.006944444444444444
asI145
(lp3133
F0.0
assg1514
g13
(g14
tp3134
Rp3135
I1
(lp3136
F1.0
asI2
(lp3137
F1.0
asI3
(lp3138
F1.0
asI4
(lp3139
F1.0
asI5
(lp3140
F1.0
asI6
(lp3141
F1.0
asI7
(lp3142
F1.0
asI8
(lp3143
F1.0
asI9
(lp3144
F1.0
asI10
(lp3145
F1.0
asI11
(lp3146
F1.0
asI12
(lp3147
F1.0
asI13
(lp3148
F1.0
asI14
(lp3149
F1.0
asI15
(lp3150
F1.0
asI16
(lp3151
F1.0
asI17
(lp3152
F1.0
asI18
(lp3153
F1.0
asI19
(lp3154
F1.0
asI20
(lp3155
F1.0
asI21
(lp3156
F1.0
asI22
(lp3157
F1.0
asI23
(lp3158
F1.0
asI24
(lp3159
F1.0
asI25
(lp3160
F1.0
asI26
(lp3161
F1.0
asI27
(lp3162
F1.0
asI28
(lp3163
F1.0
asI29
(lp3164
F1.0
asI30
(lp3165
F1.0
asI31
(lp3166
F1.0
asI32
(lp3167
F1.0
asI33
(lp3168
F1.0
asI34
(lp3169
F1.0
asI35
(lp3170
F1.0
asI36
(lp3171
F1.0
asI37
(lp3172
F1.0
asI38
(lp3173
F1.0
asI39
(lp3174
F1.0
asI40
(lp3175
F1.0
asI41
(lp3176
F1.0
asI42
(lp3177
F1.0
asI43
(lp3178
F1.0
asI44
(lp3179
F1.0
asI45
(lp3180
F1.0
asI46
(lp3181
F1.0
asI47
(lp3182
F1.0
asI48
(lp3183
F1.0
asI49
(lp3184
F1.0
asI50
(lp3185
F1.0
asI51
(lp3186
F1.0
asI52
(lp3187
F1.0
asI53
(lp3188
F1.0
asI54
(lp3189
F1.0
asI55
(lp3190
F1.0
asI56
(lp3191
F1.0
asI57
(lp3192
F1.0
asI58
(lp3193
F1.0
asI59
(lp3194
F1.0
asI60
(lp3195
F1.0
asI61
(lp3196
F1.0
asI62
(lp3197
F1.0
asI63
(lp3198
F1.0
asI64
(lp3199
F1.0
asI65
(lp3200
F1.0
asI66
(lp3201
F1.0
asI67
(lp3202
F1.0
asI68
(lp3203
F1.0
asI69
(lp3204
F1.0
asI70
(lp3205
F1.0
asI71
(lp3206
F1.0
asI72
(lp3207
F0.020833333333333332
asI73
(lp3208
F1.0
asI74
(lp3209
F0.006944444444444444
asI75
(lp3210
F1.0
asI76
(lp3211
F0.020833333333333332
asI77
(lp3212
F1.0
asI78
(lp3213
F1.0
asI79
(lp3214
F0.013888888888888888
asI80
(lp3215
F1.0
asI81
(lp3216
F1.0
asI82
(lp3217
F1.0
asI83
(lp3218
F1.0
asI84
(lp3219
F0.034722222222222224
asI85
(lp3220
F1.0
asI86
(lp3221
F1.0
asI87
(lp3222
F1.0
asI88
(lp3223
F1.0
asI89
(lp3224
F1.0
asI90
(lp3225
F1.0
asI91
(lp3226
F1.0
asI92
(lp3227
F1.0
asI93
(lp3228
F1.0
asI94
(lp3229
F1.0
asI95
(lp3230
F0.013888888888888888
asI96
(lp3231
F1.0
asI97
(lp3232
F1.0
asI98
(lp3233
F1.0
asI99
(lp3234
F1.0
asI100
(lp3235
F0.020833333333333332
asI101
(lp3236
F0.006944444444444444
asI102
(lp3237
F1.0
asI103
(lp3238
F1.0
asI104
(lp3239
F0.020833333333333332
asI105
(lp3240
F0.013888888888888888
asI106
(lp3241
F1.0
asI107
(lp3242
F1.0
asI108
(lp3243
F0.006944444444444444
asI109
(lp3244
F0.041666666666666664
asI110
(lp3245
F1.0
asI111
(lp3246
F0.006944444444444444
asI112
(lp3247
F0.006944444444444444
asI113
(lp3248
F1.0
asI114
(lp3249
F1.0
asI115
(lp3250
F0.013888888888888888
asI116
(lp3251
F0.006944444444444444
asI117
(lp3252
F0.006944444444444444
asI118
(lp3253
F1.0
asI119
(lp3254
F1.0
asI120
(lp3255
F0.006944444444444444
asI121
(lp3256
F0.006944444444444444
asI122
(lp3257
F1.0
asI123
(lp3258
F1.0
asI124
(lp3259
F0.013888888888888888
asI125
(lp3260
F0.0625
asI126
(lp3261
F0.006944444444444444
asI127
(lp3262
F0.013888888888888888
asI128
(lp3263
F0.006944444444444444
asI129
(lp3264
F0.006944444444444444
asI130
(lp3265
F0.006944444444444444
asI131
(lp3266
F0.006944444444444444
asI132
(lp3267
F0.006944444444444444
asI133
(lp3268
F1.0
asI134
(lp3269
F0.006944444444444444
asI135
(lp3270
F0.006944444444444444
asI136
(lp3271
F0.013888888888888888
asI137
(lp3272
F0.006944444444444444
asI138
(lp3273
F0.006944444444444444
asI139
(lp3274
F0.006944444444444444
asI140
(lp3275
F0.006944444444444444
asI141
(lp3276
F0.006944444444444444
asI142
(lp3277
F0.006944444444444444
asI143
(lp3278
F0.006944444444444444
asI144
(lp3279
F0.006944444444444444
asI145
(lp3280
F0.0
asss.